Microchip Technology Inc, vv3_24 (A) \

Tool Name:
  c:\program files (x86)\microchip\mplab c30\bin\bin\..\bin/pic30-coff-ld.exe

Command:
  -p24FJ256GB206 \
  -oC:\Users\Stefano\Desktop\hack_stretching_monitor\Obj\a.cof \
  -LC:\Program Files (x86)\FlyPort IDE PRO\Microchip\TCPIP Stack\BigInt_helper_coff.a \
  -LC:\Program Files (x86)\FlyPort IDE PRO\Microchip\TCPIP Stack\BigInt_helper_elf.a \
  -LC:\Program Files (x86)\FlyPort IDE PRO\c30\support\gld \
  -LC:\Program Files (x86)\FlyPort IDE PRO\c30\lib \
  -LC:\Program Files (x86)\FlyPort IDE PRO\c30\lib\pic24f \
  -Lc:/program files (x86)/microchip/mplab c30/bin/bin/.. \
  -Lc:/program files (x86)/microchip/mplab c30/bin/bin/../../lib \
  -Lc:/program files (x86)/microchip/mplab c30/bin/bin/../../support/generic/gld \
  -Lc:/program files (x86)/microchip/mplab c30/bin/bin/../../lib/PIC24F \
  -Lc:/program files (x86)/microchip/mplab c30/bin/bin/../../support/PIC24F/gld \
  -Lc:/program files (x86)/microchip/mplab c30/bin/bin/../../lib/PIC24H \
  -Lc:/program files (x86)/microchip/mplab c30/bin/bin/../../support/PIC24H/gld \
  -Lc:/program files (x86)/microchip/mplab c30/bin/bin/../../lib/dsPIC30F \
  -Lc:/program files (x86)/microchip/mplab c30/bin/bin/../../support/dsPIC30F/gld \
  -Lc:/program files (x86)/microchip/mplab c30/bin/bin/../../lib/dsPIC33F \
  -Lc:/program files (x86)/microchip/mplab c30/bin/bin/../../support/dsPIC33F/gld \
  Announce.o \
  ARCFOUR.o \
  ARP.o \
  ARPlib.o \
  BigInt.o \
  BigInt_helper.o \
  Delay.o \
  DHCP.o \
  DHCPs.o \
  DNS.o \
  DNSs.o \
  DynDNS.o \
  ENCX24J600.o \
  FTP.o \
  FTPlib.o \
  Hashes.o \
  heap_2.o \
  Helpers.o \
  HTTP2.o \
  HTTPApp.o \
  HWInit.o \
  HWlib.o \
  ICMP.o \
  INTlib.o \
  IP.o \
  ISRs.o \
  list.o \
  Main.o \
  MPFS2.o \
  MPFSImg2.o \
  NBNS.o \
  NETlib.o \
  port.o \
  portasm_PIC24.o \
  queue.o \
  Random.o \
  Reboot.o \
  Regs.o \
  RSA.o \
  RTCClib.o \
  SMTP.o \
  SMTPlib.o \
  SNTP.o \
  SPIFlash.o \
  SSL.o \
  StackTsk.o \
  taskFlyport.o \
  tasks.o \
  TCP.o \
  TCPIP_Utils.o \
  TCPlib.o \
  Tick.o \
  UDP.o \
  UDPlib.o \
  WFConnectionAlgorithm.o \
  WFConnectionManager.o \
  WFConnectionProfile.o \
  WFDataTxRx.o \
  WFDebugStrings.o \
  WFDriverCom.o \
  WFDriverCom_24G.o \
  WFDriverRaw.o \
  WFDriverRaw_24G.o \
  WFEventHandler.o \
  WFInit.o \
  WFMac.o \
  WFMac_24G.o \
  WFMgmtMsg.o \
  WFMgmtMsg_24G.o \
  WFParamMsg.o \
  WFParamMsg_24G.o \
  WFPowerSave.o \
  WFScan.o \
  WFTxPower.o \
  WF_Config.o \
  WF_Eint.o \
  WF_Events.o \
  WF_Spi.o \
  WF_Utils.o \
  x_analog_in-pro.o \
  x_digital_io-pro.o \
  x_groveboard-pro.o \
  x_grovelib-pro.o \
  x_heap.o \
  x_HTTPlib.o \
  x_i2c_devices-pro.o \
  x_input_capture.o \
  x_sonic_ranger.o \
  ZeroconfHelper.o \
  ZeroconfLinkLocal.o \
  ZeroconfMulticastDNS.o \
  -Tp24FJ256GB206.gld.00 \
  --defsym=__MPLAB_BUILD=1 \
  -Map=Flyport.map \
  --report-mem \
  --library=pic30 \
  --library=c \
  --library=m \
  -start-group \
  --library=pic30-coff \
  --library=m-coff \
  --library=c-coff \
  -end-group \

Archive member included because of file (symbol)

c:/program files (x86)/microchip/mplab c30/bin/bin/../../lib\libpic30-coff.a(crt0_extended.o)
                              (_resetPRI)
c:/program files (x86)/microchip/mplab c30/bin/bin/../../lib\libpic30-coff.a(c30_uart.o)
                              HWInit.o (__C30_UART)
c:/program files (x86)/microchip/mplab c30/bin/bin/../../lib\libpic30-coff.a(flash_helper.o)
                              NETlib.o (_flash_helper1)
c:/program files (x86)/microchip/mplab c30/bin/bin/../../lib\libpic30-coff.a(data_init_extended.o)
                              c:/program files (x86)/microchip/mplab c30/bin/bin/../../lib\libpic30-coff.a(crt0_extended.o) (_data_init_extended)
c:/program files (x86)/microchip/mplab c30/bin/bin/../../lib\libc-coff.a(memset.o)
                              DHCP.o (memset)
c:/program files (x86)/microchip/mplab c30/bin/bin/../../lib\libc-coff.a(strtok.o)
                              FTPlib.o (strtok)
c:/program files (x86)/microchip/mplab c30/bin/bin/../../lib\libc-coff.a(strcpy.o)
                              FTPlib.o (strcpy)
c:/program files (x86)/microchip/mplab c30/bin/bin/../../lib\libc-coff.a(strlen.o)
                              FTPlib.o (strlen)
c:/program files (x86)/microchip/mplab c30/bin/bin/../../lib\libc-coff.a(strcat.o)
                              FTPlib.o (strcat)
c:/program files (x86)/microchip/mplab c30/bin/bin/../../lib\libc-coff.a(xstoul.o)
                              FTPlib.o (_Stoul)
c:/program files (x86)/microchip/mplab c30/bin/bin/../../lib\libc-coff.a(sprintf.io)
                              FTPlib.o (_isprintf)
c:/program files (x86)/microchip/mplab c30/bin/bin/../../lib\libc-coff.a(strcmp.o)
                              FTPlib.o (strcmp)
c:/program files (x86)/microchip/mplab c30/bin/bin/../../lib\libc-coff.a(rand.o)
                              Helpers.o (rand)
c:/program files (x86)/microchip/mplab c30/bin/bin/../../lib\libc-coff.a(srand.o)
                              Helpers.o (srand)
c:/program files (x86)/microchip/mplab c30/bin/bin/../../lib\libc-coff.a(memcmp.o)
                              HTTP2.o (memcmp)
c:/program files (x86)/microchip/mplab c30/bin/bin/../../lib\libc-coff.a(memcpy.o)
                              HTTPApp.o (memcpy)
c:/program files (x86)/microchip/mplab c30/bin/bin/../../lib\libc-coff.a(strchr.o)
                              SMTP.o (strchr)
c:/program files (x86)/microchip/mplab c30/bin/bin/../../lib\libc-coff.a(strstr.o)
                              SMTP.o (strstr)
c:/program files (x86)/microchip/mplab c30/bin/bin/../../lib\libc-coff.a(sprintf.o)
                              taskFlyport.o (sprintf)
c:/program files (x86)/microchip/mplab c30/bin/bin/../../lib\libc-coff.a(strncpy.o)
                              tasks.o (strncpy)
c:/program files (x86)/microchip/mplab c30/bin/bin/../../lib\libc-coff.a(free.o)
                              x_analog_in-pro.o (free)
c:/program files (x86)/microchip/mplab c30/bin/bin/../../lib\libc-coff.a(malloc.o)
                              c:/program files (x86)/microchip/mplab c30/bin/bin/../../lib\libc-coff.a(free.o) (_Aldata)
c:/program files (x86)/microchip/mplab c30/bin/bin/../../lib\libc-coff.a(calloc.o)
                              x_grovelib-pro.o (calloc)
c:/program files (x86)/microchip/mplab c30/bin/bin/../../lib\libc-coff.a(strspn.o)
                              c:/program files (x86)/microchip/mplab c30/bin/bin/../../lib\libc-coff.a(strtok.o) (strspn)
c:/program files (x86)/microchip/mplab c30/bin/bin/../../lib\libc-coff.a(strcspn.o)
                              c:/program files (x86)/microchip/mplab c30/bin/bin/../../lib\libc-coff.a(strtok.o) (strcspn)
c:/program files (x86)/microchip/mplab c30/bin/bin/../../lib\libc-coff.a(isspace.o)
                              c:/program files (x86)/microchip/mplab c30/bin/bin/../../lib\libc-coff.a(xstoul.o) (isspace)
c:/program files (x86)/microchip/mplab c30/bin/bin/../../lib\libc-coff.a(tolower.o)
                              c:/program files (x86)/microchip/mplab c30/bin/bin/../../lib\libc-coff.a(xstoul.o) (tolower)
c:/program files (x86)/microchip/mplab c30/bin/bin/../../lib\libc-coff.a(memchr.o)
                              c:/program files (x86)/microchip/mplab c30/bin/bin/../../lib\libc-coff.a(xstoul.o) (memchr)
c:/program files (x86)/microchip/mplab c30/bin/bin/../../lib\libc-coff.a(errno.o)
                              c:/program files (x86)/microchip/mplab c30/bin/bin/../../lib\libc-coff.a(xstoul.o) (errno)
c:/program files (x86)/microchip/mplab c30/bin/bin/../../lib\libc-coff.a(xprintf.io)
                              c:/program files (x86)/microchip/mplab c30/bin/bin/../../lib\libc-coff.a(sprintf.io) (__iPrintf)
c:/program files (x86)/microchip/mplab c30/bin/bin/../../lib\libc-coff.a(xprintf.o)
                              c:/program files (x86)/microchip/mplab c30/bin/bin/../../lib\libc-coff.a(sprintf.o) (_Printf)
c:/program files (x86)/microchip/mplab c30/bin/bin/../../lib\libc-coff.a(xgetmem.o)
                              c:/program files (x86)/microchip/mplab c30/bin/bin/../../lib\libc-coff.a(malloc.o) (_Getmem)
c:/program files (x86)/microchip/mplab c30/bin/bin/../../lib\libc-coff.a(xvacopy.o)
                              c:/program files (x86)/microchip/mplab c30/bin/bin/../../lib\libc-coff.a(xprintf.io) (_Vacopy)
c:/program files (x86)/microchip/mplab c30/bin/bin/../../lib\libc-coff.a(xputfld.io)
                              c:/program files (x86)/microchip/mplab c30/bin/bin/../../lib\libc-coff.a(xprintf.io) (__iPutfld)
c:/program files (x86)/microchip/mplab c30/bin/bin/../../lib\libc-coff.a(xputtxt.o)
                              c:/program files (x86)/microchip/mplab c30/bin/bin/../../lib\libc-coff.a(xprintf.io) (_Puttxt)
c:/program files (x86)/microchip/mplab c30/bin/bin/../../lib\libc-coff.a(xputfld.o)
                              c:/program files (x86)/microchip/mplab c30/bin/bin/../../lib\libc-coff.a(xprintf.o) (_Putfld)
c:/program files (x86)/microchip/mplab c30/bin/bin/../../lib\libc-coff.a(xlitob.o)
                              c:/program files (x86)/microchip/mplab c30/bin/bin/../../lib\libc-coff.a(xputfld.io) (_Litob)
c:/program files (x86)/microchip/mplab c30/bin/bin/../../lib\libc-coff.a(xldtob.o)
                              c:/program files (x86)/microchip/mplab c30/bin/bin/../../lib\libc-coff.a(xputfld.o) (_Ldtob)
c:/program files (x86)/microchip/mplab c30/bin/bin/../../lib\libc-coff.a(xldunsca.o)
                              c:/program files (x86)/microchip/mplab c30/bin/bin/../../lib\libc-coff.a(xldtob.o) (_LDunscale)
c:/program files (x86)/microchip/mplab c30/bin/bin/../../lib\libc-coff.a(xldscale.o)
                              c:/program files (x86)/microchip/mplab c30/bin/bin/../../lib\libc-coff.a(xldtob.o) (_LDscale)
c:/program files (x86)/microchip/mplab c30/bin/bin/../../lib\libc-coff.a(ldiv.o)
                              c:/program files (x86)/microchip/mplab c30/bin/bin/../../lib\libc-coff.a(xldtob.o) (ldiv)
c:/program files (x86)/microchip/mplab c30/bin/bin/../../lib\libc-coff.a(xgenld.o)
                              c:/program files (x86)/microchip/mplab c30/bin/bin/../../lib\libc-coff.a(xldtob.o) (_Genld)
c:/program files (x86)/microchip/mplab c30/bin/bin/../../lib\libc-coff.a(xdnorm.o)
                              c:/program files (x86)/microchip/mplab c30/bin/bin/../../lib\libc-coff.a(xldunsca.o) (_Dnorm)
c:/program files (x86)/microchip/mplab c30/bin/bin/../../lib\libc-coff.a(div.o)
                              c:/program files (x86)/microchip/mplab c30/bin/bin/../../lib\libc-coff.a(xgenld.o) (div)
c:/program files (x86)/microchip/mplab c30/bin/bin/../../lib\libm-coff.a(udivsi3.o)
                              Helpers.o (__udivsi3)
c:/program files (x86)/microchip/mplab c30/bin/bin/../../lib\libm-coff.a(divsf3.o)
                              HWlib.o (__divsf3)
c:/program files (x86)/microchip/mplab c30/bin/bin/../../lib\libm-coff.a(fgtge.o)
                              HWlib.o (__gtsf2)
c:/program files (x86)/microchip/mplab c30/bin/bin/../../lib\libm-coff.a(fixunssfsi.o)
                              HWlib.o (__fixunssfsi)
c:/program files (x86)/microchip/mplab c30/bin/bin/../../lib\libm-coff.a(floatsisf.o)
                              HWlib.o (__floatsisf)
c:/program files (x86)/microchip/mplab c30/bin/bin/../../lib\libm-coff.a(addsf3.o)
                              taskFlyport.o (__subsf3)
c:/program files (x86)/microchip/mplab c30/bin/bin/../../lib\libm-coff.a(mulsf3.o)
                              HWlib.o (__mulsf3)
c:/program files (x86)/microchip/mplab c30/bin/bin/../../lib\libm-coff.a(fne.o)
                              taskFlyport.o (__nesf2)
c:/program files (x86)/microchip/mplab c30/bin/bin/../../lib\libm-coff.a(feqltle.o)
                              taskFlyport.o (__eqsf2)
c:/program files (x86)/microchip/mplab c30/bin/bin/../../lib\libm-coff.a(divmoddi3.o)
                              Tick.o (__udivdi3)
c:/program files (x86)/microchip/mplab c30/bin/bin/../../lib\libm-coff.a(muldi3.o)
                              WFMac_24G.o (__muldi3)
c:/program files (x86)/microchip/mplab c30/bin/bin/../../lib\libm-coff.a(mulsi3.o)
                              c:/program files (x86)/microchip/mplab c30/bin/bin/../../lib\libc-coff.a(xstoul.o) (__mulsi3)
c:/program files (x86)/microchip/mplab c30/bin/bin/../../lib\libm-coff.a(extendsfdf.o)
                              c:/program files (x86)/microchip/mplab c30/bin/bin/../../lib\libc-coff.a(xputfld.o) (__extendsfdf2)
c:/program files (x86)/microchip/mplab c30/bin/bin/../../lib\libm-coff.a(umodsi3.o)
                              c:/program files (x86)/microchip/mplab c30/bin/bin/../../lib\libc-coff.a(xlitob.o) (__umodsi3)
c:/program files (x86)/microchip/mplab c30/bin/bin/../../lib\libm-coff.a(divsi3.o)
                              c:/program files (x86)/microchip/mplab c30/bin/bin/../../lib\libc-coff.a(xlitob.o) (__divsi3)
c:/program files (x86)/microchip/mplab c30/bin/bin/../../lib\libm-coff.a(deqltle.o)
                              c:/program files (x86)/microchip/mplab c30/bin/bin/../../lib\libc-coff.a(xldtob.o) (__ltdf2)
c:/program files (x86)/microchip/mplab c30/bin/bin/../../lib\libm-coff.a(fixdfsi.o)
                              c:/program files (x86)/microchip/mplab c30/bin/bin/../../lib\libc-coff.a(xldtob.o) (__fixdfsi)
c:/program files (x86)/microchip/mplab c30/bin/bin/../../lib\libm-coff.a(floatsidf.o)
                              c:/program files (x86)/microchip/mplab c30/bin/bin/../../lib\libc-coff.a(xldtob.o) (__floatsidf)
c:/program files (x86)/microchip/mplab c30/bin/bin/../../lib\libm-coff.a(subdf3.o)
                              c:/program files (x86)/microchip/mplab c30/bin/bin/../../lib\libc-coff.a(xldtob.o) (__subdf3)
c:/program files (x86)/microchip/mplab c30/bin/bin/../../lib\libm-coff.a(dgtge.o)
                              c:/program files (x86)/microchip/mplab c30/bin/bin/../../lib\libc-coff.a(xldtob.o) (__gtdf2)
c:/program files (x86)/microchip/mplab c30/bin/bin/../../lib\libm-coff.a(muldf3.o)
                              c:/program files (x86)/microchip/mplab c30/bin/bin/../../lib\libc-coff.a(xldtob.o) (__muldf3)
c:/program files (x86)/microchip/mplab c30/bin/bin/../../lib\libm-coff.a(divdf3.o)
                              c:/program files (x86)/microchip/mplab c30/bin/bin/../../lib\libc-coff.a(xldtob.o) (__divdf3)
c:/program files (x86)/microchip/mplab c30/bin/bin/../../lib\libm-coff.a(funpack2.o)
                              c:/program files (x86)/microchip/mplab c30/bin/bin/../../lib\libm-coff.a(divsf3.o) (_funpack2)
c:/program files (x86)/microchip/mplab c30/bin/bin/../../lib\libm-coff.a(futil.o)
                              c:/program files (x86)/microchip/mplab c30/bin/bin/../../lib\libm-coff.a(divsf3.o) (_fPropagateNaN)
c:/program files (x86)/microchip/mplab c30/bin/bin/../../lib\libm-coff.a(fpack.o)
                              c:/program files (x86)/microchip/mplab c30/bin/bin/../../lib\libm-coff.a(divsf3.o) (_fpack)
c:/program files (x86)/microchip/mplab c30/bin/bin/../../lib\libm-coff.a(fcompare.o)
                              c:/program files (x86)/microchip/mplab c30/bin/bin/../../lib\libm-coff.a(fgtge.o) (_fcompare)
c:/program files (x86)/microchip/mplab c30/bin/bin/../../lib\libm-coff.a(funpack.o)
                              c:/program files (x86)/microchip/mplab c30/bin/bin/../../lib\libm-coff.a(fixunssfsi.o) (_funpack)
c:/program files (x86)/microchip/mplab c30/bin/bin/../../lib\libm-coff.a(umuldi3.o)
                              c:/program files (x86)/microchip/mplab c30/bin/bin/../../lib\libm-coff.a(muldi3.o) (__umuldi3)
c:/program files (x86)/microchip/mplab c30/bin/bin/../../lib\libm-coff.a(dcompare.o)
                              c:/program files (x86)/microchip/mplab c30/bin/bin/../../lib\libm-coff.a(deqltle.o) (_dcompare)
c:/program files (x86)/microchip/mplab c30/bin/bin/../../lib\libm-coff.a(dunpack.o)
                              c:/program files (x86)/microchip/mplab c30/bin/bin/../../lib\libm-coff.a(fixdfsi.o) (_dunpack)
c:/program files (x86)/microchip/mplab c30/bin/bin/../../lib\libm-coff.a(dunpack2.o)
                              c:/program files (x86)/microchip/mplab c30/bin/bin/../../lib\libm-coff.a(muldf3.o) (_dunpack2)
c:/program files (x86)/microchip/mplab c30/bin/bin/../../lib\libm-coff.a(floatdidf.o)
                              c:/program files (x86)/microchip/mplab c30/bin/bin/../../lib\libm-coff.a(floatsidf.o) (__floatdidf)
c:/program files (x86)/microchip/mplab c30/bin/bin/../../lib\libm-coff.a(adddf3.o)
                              c:/program files (x86)/microchip/mplab c30/bin/bin/../../lib\libm-coff.a(subdf3.o) (__adddf3)
c:/program files (x86)/microchip/mplab c30/bin/bin/../../lib\libm-coff.a(dpack.o)
                              c:/program files (x86)/microchip/mplab c30/bin/bin/../../lib\libm-coff.a(muldf3.o) (_dpack)
c:/program files (x86)/microchip/mplab c30/bin/bin/../../lib\libm-coff.a(dtype.o)
                              c:/program files (x86)/microchip/mplab c30/bin/bin/../../lib\libm-coff.a(dcompare.o) (_dtype)
c:/program files (x86)/microchip/mplab c30/bin/bin/../../lib\libm-coff.a(dpropagateNaN.o)
                              c:/program files (x86)/microchip/mplab c30/bin/bin/../../lib\libm-coff.a(dunpack2.o) (_dPropagateNaN)
c:/program files (x86)/microchip/mplab c30/bin/bin/../../lib\libpic30-coff.a(sbrk.o)
                              c:/program files (x86)/microchip/mplab c30/bin/bin/../../lib\libc-coff.a(xgetmem.o) (sbrk)
c:/program files (x86)/microchip/mplab c30/bin/bin/../../lib\libpic30-coff.a(brk.o)
                              c:/program files (x86)/microchip/mplab c30/bin/bin/../../lib\libpic30-coff.a(sbrk.o) (brk)


Program Memory  [Origin = 0x200, Length = 0x2a9f8]

section                    address   length (PC units)   length (bytes) (dec)
-------                    -------   -----------------   --------------------
.text                        0x200              0x2496          0x36e1  (14049)
.const                      0x2696              0x1e72          0x2dab  (11691)
MPFSData                    0x4508              0x7d3e          0xbbdd  (48093)
.text                       0xc246              0xf77a         0x17337  (95031)
.dinit                     0x1b9c0               0x754           0xafe  (2814)
.text                      0x1c114              0x7f94          0xbf5e  (48990)
MPFSHelpers                0x240a8                 0xe            0x15  (21)

                     Total program memory used (bytes):        0x35e11  (220689) 84%


Data Memory  [Origin = 0x800, Length = 0x18000]

section                    address      alignment gaps    total length  (dec)
-------                    -------      --------------    -------------------
BigInt_helper_vars           0x800                   0             0xc  (12)
.bss                         0x80c                   0          0x21ca  (8650)
.data                       0x29d6                   0           0x3ec  (1004)
.bss                        0x2dc2                   0           0x528  (1320)
.data                       0x32ea                   0           0x16a  (362)
.bss                        0x3454                   0           0x416  (1046)
.data                       0x386a                   0            0x92  (146)
.bss                        0x38fc                   0            0x40  (64)
.data                       0x393c                   0            0x40  (64)
.bss                        0x397c                   0            0x3a  (58)
.dconst                     0x39b6                   0            0x32  (50)
.bss                        0x39e8                   0            0x28  (40)
.data                       0x3a10                   0            0x6e  (110)
.bss                        0x3a7e                   0            0x1a  (26)
.data                       0x3a98                   0            0x1a  (26)
.bss                        0x3ab2                   0            0x58  (88)
.data                       0x3b0a                   0            0x24  (36)
.bss                        0x3b2e                   0            0x36  (54)
.data                       0x3b64                   0             0xa  (10)
.bss                        0x3b6e                   0             0xa  (10)
.data                       0x3b78                   0            0x1a  (26)
.bss                        0x3b92                   0             0x8  (8)
.dconst                     0x3b9a                   0             0x8  (8)
.data                       0x3ba2                   0             0x6  (6)
.bss                        0x3ba8                   0            0x12  (18)
.data                       0x3bba                   0             0x6  (6)
.bss                        0x3bc0                   0             0x4  (4)
.data                       0x3bc4                   0             0x8  (8)
.bss                        0x3bcc                   0             0x8  (8)
.data                       0x3bd4                   0             0xc  (12)
.bss                        0x3be0                   0             0x4  (4)
.data                       0x3be4                   0             0x4  (4)
.bss                        0x3be8                   0             0x2  (2)
.data                       0x3bea                   0             0x2  (2)
.pbss                       0x3bec                   0             0x2  (2)
.data                       0x3bee                   0             0x4  (4)
.bss                        0x3bf2                   0             0x2  (2)
.data                       0x3bf4                   0             0x4  (4)
.bss                        0x3bf8                   0             0x2  (2)
.data                       0x3bfa                   0             0x4  (4)
.pbss                       0x3bfe                   0             0x2  (2)
.bss                        0x3c00                   0             0x2  (2)
.data                       0x3c02                   0             0x2  (2)
.pbss                       0x3c04                   0             0x2  (2)
.data                       0x3c06                   0             0x2  (2)
.bss                        0x3c08                   0             0x4  (4)
.data                       0x3c0c                   0             0x6  (6)
.bss                        0x3c12                   0             0x2  (2)
.data                       0x3c14                   0             0x2  (2)
.bss                        0x3c16                   0             0x2  (2)
.data                       0x3c18                   0             0x4  (4)
.bss                        0x3c1c                   0             0x2  (2)
.data                       0x3c1e                   0             0x6  (6)
.bss                        0x3c24                   0             0x2  (2)
.dconst                     0x3c26                   0             0x2  (2)
.data                       0x3c28                   0             0x2  (2)
.dconst                     0x3c2a                   0             0x2  (2)
.data                       0x3c2c                   0             0x2  (2)
.bss                        0x3c2e                   0             0x2  (2)
my_heap                     0x3c30                   0           0x500  (1280)
_034cb1c0543fa364          0x17478                   0          0x1388  (5000)

                        Total data memory used (bytes):         0x4cb8  (19640) 19%


Dynamic Memory Usage

region                     address                      maximum length  (dec)
------                     -------                      ---------------------
heap                        0x3c30                               0x500  (1280)
stack                       0x4130                              0x3ed0  (16080)

                        Maximum dynamic memory (bytes):         0x43d0  (17360)


External Symbols in Data Memory (by address):

                    0x0800                  __iA
                    0x0802                  __xA
                    0x0804                  __iB
                    0x0806                  __xB
                    0x0808                  __iR
                    0x080a                  __wC
                    0x1f86                  _XivelyAPIKey
                    0x2080                  _XivelyFeedID
                    0x217a                  _dbg_string
                    0x2274                  _state
                    0x2275                  _myData
                    0x2351                  _resp_Body
                    0x23e7                  _resp_Header
                    0x247d                  _cusHeader
                    0x2545                  _cusPath
                    0x25aa                  _ranger
                    0x25ac                  _ee_i_d
                    0x260c                  _AppConfig
                    0x26b6                  _xIPAddress
                    0x271a                  _xWord
                    0x271c                  _xChar
                    0x271e                  _xByte
                    0x2720                  _xByte2
                    0x2721                  _xByte3
                    0x2722                  _xInt
                    0x2724                  _xInt2
                    0x2726                  _xNode
                    0x2730                  _xQueue
                    0x2732                  _BUFFER_UDP_LEN
                    0x2734                  _udpBuffer
                    0x2736                  _udpRxLenGlobal
                    0x2738                  _udpSocket
                    0x273a                  _xUDPPort
                    0x273c                  _p_udp_data
                    0x273e                  _p_udp_wifiram
                    0x2740                  _xUDPRemoteHost
                    0x2744                  _udpWord
                    0x2746                  _udpInt
                    0x2748                  _udpByte
                    0x274a                  _UDPoverflowFlag
                    0x274c                  _NETConf
                    0x28a0                  _WFStatusold
                    0x28a2                  _xNet
                    0x28d0                  _udpRxLen
                    0x28d2                  _udpBuffer1
                    0x29cc                  _tmp_len
                    0x29ce                  _hTCPIPTask
                    0x29d0                  _hFlyTask
                    0x29d2                  _hTimerTask
                    0x29d4                  _xStatus
                    0x29d6                  _LATs
                    0x2a26                  _TRISs
                    0x2a76                  _PORTs
                    0x2ac6                  _CNPUs
                    0x2b16                  _CNPDs
                    0x2b66                  _CNPos
                    0x2bb6                  _IOPos
                    0x2c06                  _an
                    0x2c1a                  _UMODEs
                    0x2c22                  _USTAs
                    0x2c2a                  _UBRGs
                    0x2c32                  _UIFSs
                    0x2c3a                  _UIECs
                    0x2c42                  _UTXREGs
                    0x2c4a                  _URXREGs
                    0x2c52                  _UTXIPos
                    0x2c5a                  _URXIPos
                    0x2c62                  _AD1CONF1
                    0x2c64                  _AD1CONF2
                    0x2c66                  _AD1CONF3
                    0x2c68                  _AD1CH
                    0x2c6a                  _AD1CSL
                    0x2c6c                  _OCCON1s
                    0x2c7e                  _OCCON2s
                    0x2c90                  _OCRs
                    0x2ca2                  _OCRSs
                    0x2cb4                  _RPORs
                    0x2d04                  _RPFunc
                    0x2d1a                  _RPIORPin
                    0x2d6a                  _TCONs
                    0x2d74                  _OCM
                    0x2d86                  _RPIRs
                    0x2da4                  _RPIRPos
                    0x3164                  _TimerOn
                    0x31f0                  _String_post
                    0x32ea                  _connectionFailureStrings
                    0x3312                  _connectionLostStrings
                    0x3312                  _channelList_softAP_redirect
                    0x331e                  _deauthDisssocReasonCodes
                    0x3350                  _statusCodes
                    0x33b0                  _wpsState
                    0x33ce                  _wpsConfigErr
                    0x3424                  _moduleName
                    0x3560                  _UDPSocketInfo
                    0x3620                  _activeUDPSocket
                    0x3622                  _UDPTxCount
                    0x3624                  _UDPRxCount
                    0x3626                  _curHTTP
                    0x36a8                  _httpStubs
                    0x36b0                  _curHTTPID
                    0x381a                  _IOMode
                    0x38fc                  _lastBlock
                    0x393c                  _XivelyServer
                    0x394b                  _XivelyPort
                    0x394e                  _XivelyClient
                    0x3950                  _ParamSet
                    0x3952                  _distance
                    0x3956                  _distance_zero
                    0x395a                  _starttime
                    0x395e                  _time
                    0x3962                  _btt_time
                    0x3966                  _btt_time_0
                    0x396a                  _btt_time_1
                    0x396e                  _timeout
                    0x3970                  _resp_code
                    0x3972                  _len
                    0x3974                  _seconds
                    0x3976                  _afterseconds
                    0x3978                  _cnt_ee_i
                    0x397a                  _cnt_ee_d
                    0x399e                  _SMTPClient
                    0x3a10                  _ConnectionProfileID
                    0x3a12                  __WFStat
                    0x3a14                  _WFConnection
                    0x3a16                  _xTCPPort
                    0x3a18                  _xSocket
                    0x3a1a                  _xFrontEndStat
                    0x3a1c                  _xFrontEndStatRet
                    0x3a1e                  _xErr
                    0x3a20                  _xBool
                    0x3a22                  _WPAWrong
                    0x3a24                  _numUdpSocket
                    0x3a26                  _xUDPLocalPort
                    0x3a28                  _xUDPRemotePort
                    0x3a2a                  _activeUdpSocket
                    0x3a2b                  _callbackUdpSocket
                    0x3a2c                  _udpErr
                    0x3a2e                  _udpBool
                    0x3a30                  _datadiscard
                    0x3a32                  _UDPoverflow
                    0x3a34                  _xSemFrontEnd
                    0x3a36                  _xSemHW
                    0x3a38                  _RPICRs
                    0x3a44                  _ICCON1Rs
                    0x3a50                  _ICCON2Rs
                    0x3a94                  _g_rxBufferLength
                    0x3a96                  _WF_hibernate
                    0x3af2                  _RawMoveState
                    0x3afa                  _DhcpIpPool
                    0x3b0a                  _g_d1
                    0x3b0c                  _g_d2
                    0x3b0e                  _g_SCK
                    0x3b0f                  _g_MISO
                    0x3b10                  _g_MOSI
                    0x3b11                  _g_SPI_CS
                    0x3b12                  _g_SD_CD
                    0x3b13                  _g_I2CSCL
                    0x3b14                  _g_I2CSDA
                    0x3b15                  _g_an
                    0x3b18                  _GroveStarted
                    0x3b1a                  _Board
                    0x3b34                  _remoteNode
                    0x3b78                  __Tls_setup__Randseed
                    0x3b7a                  __Randseed
                    0x3b7e                  __Tls_setup__Randinit
                    0x3b80                  __Randinit
                    0x3b82                  _DHCPAssigned
                    0x3b84                  _g_DhcpRenew
                    0x3b86                  _g_DhcpRetryTimer
                    0x3b8a                  _g_DhcpSuccessful
                    0x3b8c                  _g_WiFiConnectionChanged
                    0x3b8e                  _g_WiFiConnection
                    0x3b90                  _g_dhcpInProgress
                    0x3b98                  _g_rxDtim
                    0x3ba4                  _bDHCPServerEnabled
                    0x3ba8                  _isr_int2
                    0x3baa                  _isr_int3
                    0x3bac                  _isr_int4
                    0x3bb4                  _icflag
                    0x3bb6                  _icvalue
                    0x3bba                  __Size_block
                    0x3bbc                  __Aldata
                    0x3bd4                  _pxCurrentTCB
                    0x3bd8                  _g_HostRAWDataPacketReceived
                    0x3bda                  _g_RawIndexPastEnd
                    0x3bdc                  _WFArpBroadcastIntervalSec
                    0x3be4                  __Tls_setup_errno
                    0x3be6                  _errno
                    0x3bea                  _DHCPClientInitializedOnce
                    0x3bf4                  _uxCriticalNesting
                    0x3c0a                  _RawWindowState
                    0x3c0c                  _g_WaitingForMgmtResponse
                    0x3c10                  _WFNetworkFound
                    0x3c12                  _myRSSI
                    0x3c14                  _ScanCompleted
                    0x3c18                  _An_i
                    0x3c1a                  _Dig_io
                    0x3c1c                  _flag
                    0x3c1e                  _Ranger
                    0x3c20                  ___C30_UART
                    0x3c2e                  ___curbrk
                    0x17478                  _eds_space

External Symbols in Data Memory (by name):

                    0x2c68                  _AD1CH
                    0x2c62                  _AD1CONF1
                    0x2c64                  _AD1CONF2
                    0x2c66                  _AD1CONF3
                    0x2c6a                  _AD1CSL
                    0x3c18                  _An_i
                    0x260c                  _AppConfig
                    0x2732                  _BUFFER_UDP_LEN
                    0x3b1a                  _Board
                    0x2b16                  _CNPDs
                    0x2ac6                  _CNPUs
                    0x2b66                  _CNPos
                    0x3a10                  _ConnectionProfileID
                    0x3b82                  _DHCPAssigned
                    0x3bea                  _DHCPClientInitializedOnce
                    0x3afa                  _DhcpIpPool
                    0x3c1a                  _Dig_io
                    0x3b18                  _GroveStarted
                    0x3a44                  _ICCON1Rs
                    0x3a50                  _ICCON2Rs
                    0x381a                  _IOMode
                    0x2bb6                  _IOPos
                    0x29d6                  _LATs
                    0x274c                  _NETConf
                    0x2c6c                  _OCCON1s
                    0x2c7e                  _OCCON2s
                    0x2d74                  _OCM
                    0x2ca2                  _OCRSs
                    0x2c90                  _OCRs
                    0x2a76                  _PORTs
                    0x3950                  _ParamSet
                    0x2d04                  _RPFunc
                    0x3a38                  _RPICRs
                    0x2d1a                  _RPIORPin
                    0x2da4                  _RPIRPos
                    0x2d86                  _RPIRs
                    0x2cb4                  _RPORs
                    0x3c1e                  _Ranger
                    0x3af2                  _RawMoveState
                    0x3c0a                  _RawWindowState
                    0x399e                  _SMTPClient
                    0x3c14                  _ScanCompleted
                    0x31f0                  _String_post
                    0x2d6a                  _TCONs
                    0x2a26                  _TRISs
                    0x3164                  _TimerOn
                    0x2c2a                  _UBRGs
                    0x3624                  _UDPRxCount
                    0x3560                  _UDPSocketInfo
                    0x3622                  _UDPTxCount
                    0x3a32                  _UDPoverflow
                    0x274a                  _UDPoverflowFlag
                    0x2c3a                  _UIECs
                    0x2c32                  _UIFSs
                    0x2c1a                  _UMODEs
                    0x2c5a                  _URXIPos
                    0x2c4a                  _URXREGs
                    0x2c22                  _USTAs
                    0x2c52                  _UTXIPos
                    0x2c42                  _UTXREGs
                    0x3bdc                  _WFArpBroadcastIntervalSec
                    0x3a14                  _WFConnection
                    0x3c10                  _WFNetworkFound
                    0x28a0                  _WFStatusold
                    0x3a96                  _WF_hibernate
                    0x3a22                  _WPAWrong
                    0x1f86                  _XivelyAPIKey
                    0x394e                  _XivelyClient
                    0x2080                  _XivelyFeedID
                    0x394b                  _XivelyPort
                    0x393c                  _XivelyServer
                    0x3bbc                  __Aldata
                    0x3b80                  __Randinit
                    0x3b7a                  __Randseed
                    0x3bba                  __Size_block
                    0x3b7e                  __Tls_setup__Randinit
                    0x3b78                  __Tls_setup__Randseed
                    0x3be4                  __Tls_setup_errno
                    0x3a12                  __WFStat
                    0x3c20                  ___C30_UART
                    0x3c2e                  ___curbrk
                    0x0800                  __iA
                    0x0804                  __iB
                    0x0808                  __iR
                    0x080a                  __wC
                    0x0802                  __xA
                    0x0806                  __xB
                    0x3620                  _activeUDPSocket
                    0x3a2a                  _activeUdpSocket
                    0x3976                  _afterseconds
                    0x2c06                  _an
                    0x3ba4                  _bDHCPServerEnabled
                    0x3962                  _btt_time
                    0x3966                  _btt_time_0
                    0x396a                  _btt_time_1
                    0x3a2b                  _callbackUdpSocket
                    0x3312                  _channelList_softAP_redirect
                    0x397a                  _cnt_ee_d
                    0x3978                  _cnt_ee_i
                    0x32ea                  _connectionFailureStrings
                    0x3312                  _connectionLostStrings
                    0x3626                  _curHTTP
                    0x36b0                  _curHTTPID
                    0x247d                  _cusHeader
                    0x2545                  _cusPath
                    0x3a30                  _datadiscard
                    0x217a                  _dbg_string
                    0x331e                  _deauthDisssocReasonCodes
                    0x3952                  _distance
                    0x3956                  _distance_zero
                    0x17478                  _eds_space
                    0x25ac                  _ee_i_d
                    0x3be6                  _errno
                    0x3c1c                  _flag
                    0x3b84                  _g_DhcpRenew
                    0x3b86                  _g_DhcpRetryTimer
                    0x3b8a                  _g_DhcpSuccessful
                    0x3bd8                  _g_HostRAWDataPacketReceived
                    0x3b13                  _g_I2CSCL
                    0x3b14                  _g_I2CSDA
                    0x3b0f                  _g_MISO
                    0x3b10                  _g_MOSI
                    0x3bda                  _g_RawIndexPastEnd
                    0x3b0e                  _g_SCK
                    0x3b12                  _g_SD_CD
                    0x3b11                  _g_SPI_CS
                    0x3c0c                  _g_WaitingForMgmtResponse
                    0x3b8e                  _g_WiFiConnection
                    0x3b8c                  _g_WiFiConnectionChanged
                    0x3b15                  _g_an
                    0x3b0a                  _g_d1
                    0x3b0c                  _g_d2
                    0x3b90                  _g_dhcpInProgress
                    0x3a94                  _g_rxBufferLength
                    0x3b98                  _g_rxDtim
                    0x29d0                  _hFlyTask
                    0x29ce                  _hTCPIPTask
                    0x29d2                  _hTimerTask
                    0x36a8                  _httpStubs
                    0x3bb4                  _icflag
                    0x3bb6                  _icvalue
                    0x3ba8                  _isr_int2
                    0x3baa                  _isr_int3
                    0x3bac                  _isr_int4
                    0x38fc                  _lastBlock
                    0x3972                  _len
                    0x3424                  _moduleName
                    0x2275                  _myData
                    0x3c12                  _myRSSI
                    0x3a24                  _numUdpSocket
                    0x273c                  _p_udp_data
                    0x273e                  _p_udp_wifiram
                    0x3bd4                  _pxCurrentTCB
                    0x25aa                  _ranger
                    0x3b34                  _remoteNode
                    0x2351                  _resp_Body
                    0x23e7                  _resp_Header
                    0x3970                  _resp_code
                    0x3974                  _seconds
                    0x395a                  _starttime
                    0x2274                  _state
                    0x3350                  _statusCodes
                    0x395e                  _time
                    0x396e                  _timeout
                    0x29cc                  _tmp_len
                    0x3a2e                  _udpBool
                    0x2734                  _udpBuffer
                    0x28d2                  _udpBuffer1
                    0x2748                  _udpByte
                    0x3a2c                  _udpErr
                    0x2746                  _udpInt
                    0x28d0                  _udpRxLen
                    0x2736                  _udpRxLenGlobal
                    0x2738                  _udpSocket
                    0x2744                  _udpWord
                    0x3bf4                  _uxCriticalNesting
                    0x33ce                  _wpsConfigErr
                    0x33b0                  _wpsState
                    0x3a20                  _xBool
                    0x271e                  _xByte
                    0x2720                  _xByte2
                    0x2721                  _xByte3
                    0x271c                  _xChar
                    0x3a1e                  _xErr
                    0x3a1a                  _xFrontEndStat
                    0x3a1c                  _xFrontEndStatRet
                    0x26b6                  _xIPAddress
                    0x2722                  _xInt
                    0x2724                  _xInt2
                    0x28a2                  _xNet
                    0x2726                  _xNode
                    0x2730                  _xQueue
                    0x3a34                  _xSemFrontEnd
                    0x3a36                  _xSemHW
                    0x3a18                  _xSocket
                    0x29d4                  _xStatus
                    0x3a16                  _xTCPPort
                    0x3a26                  _xUDPLocalPort
                    0x273a                  _xUDPPort
                    0x2740                  _xUDPRemoteHost
                    0x3a28                  _xUDPRemotePort
                    0x271a                  _xWord

External Symbols in Program Memory (by address):

                  0x000200                  __resetPRI
                  0x000222                  __psv_init
                  0x00022e                  __data_init
                  0x00022e                  __data_init_extended
                  0x000394                  __flash_helper1
                  0x0003b0                  __flash_helper2
                  0x0003b4                  __flash_helper3
                  0x0003d8                  __flash_helper4
                  0x0003da                  __flash_helper5
                  0x0003e8                  __flash_helper6
                  0x0003ee                  _memset
                  0x0003fc                  _strtok
                  0x000434                  _strcpy
                  0x000444                  _strlen
                  0x000452                  _strcat
                  0x000470                  __Stoul
                  0x000598                  _strcmp
                  0x0005bc                  _rand
                  0x000666                  _srand
                  0x000688                  _memcmp
                  0x0006a4                  _memcpy
                  0x0006b2                  _strchr
                  0x0006c4                  _strstr
                  0x0006ec                  sprintf.o:_prout
                  0x0006f8                  _sprintf
                  0x0006f8                  __isprintf
                  0x00071a                  _strncpy
                  0x00073c                  _free
                  0x0007a4                  _malloc
                  0x000848                  _calloc
                  0x000866                  _strspn
                  0x00088a                  _strcspn
                  0x0008ae                  _isspace
                  0x0008be                  _tolower
                  0x0008cc                  _memchr
                  0x0008e0                  __Geterrno
                  0x0008ec                  ___iPrintf
                  0x0008ec                  __Printf
                  0x000a5e                  __Getmem
                  0x000a6c                  __Vacopy
                  0x000a76                  __Puttxt
                  0x000c0a                  ___iPutfld
                  0x000c0a                  __Putfld
                  0x000f04                  __Litob
                  0x001216                  __Ldtob
                  0x001668                  __LDunscale
                  0x0016c0                  __LDscale
                  0x0017b6                  _ldiv
                  0x0017f0                  __Genld
                  0x001a58                  __Dnorm
                  0x001af0                  _div
                  0x001b06                  ___mulsi3
                  0x001b06                  ___mulp32peds3
                  0x001b06                  ___mulp32eds3
                  0x001b5c                  ___udivsi3
                  0x001b7c                  ___divsf3
                  0x001c00                  ___gtsf2
                  0x001c00                  ___gesf2
                  0x001c04                  ___fixunssfsi
                  0x001c3a                  ___floatsisf
                  0x001c90                  ___subsf3
                  0x001c92                  ___addsf3
                  0x001d4c                  ___mulsf3
                  0x001db4                  ___nesf2
                  0x001db8                  ___eqsf2
                  0x001db8                  ___lesf2
                  0x001db8                  ___ltsf2
                  0x001de2                  ___udivmoddi3
                  0x001eb0                  ___udivdi3
                  0x001ebe                  ___umoddi3
                  0x001ec6                  ___divdi3
                  0x001f00                  ___moddi3
                  0x001fd2                  ___muldi3
                  0x00202e                  ___extendsfdf2
                  0x00206c                  ___umodsi3
                  0x002072                  ___divsi3
                  0x002090                  ___ltdf2
                  0x002090                  ___ledf2
                  0x002090                  ___eqdf2
                  0x00209a                  ___fixdfsi
                  0x0020f2                  ___floatsidf
                  0x0020f8                  ___subdf3
                  0x0020fc                  ___gtdf2
                  0x0020fc                  ___gedf2
                  0x002106                  ___muldf3
                  0x0021f0                  ___divdf3
                  0x0022a4                  __funpack2
                  0x0022b4                  __fPropagateNaN
                  0x0022c6                  __fbopExit
                  0x0022ce                  __fbopReturnNaN
                  0x0022d4                  __fpack
                  0x002320                  __fcompare
                  0x002356                  __funpack
                  0x002380                  ___umuldi3
                  0x0023c4                  __dcompare
                  0x002416                  __dunpack
                  0x002464                  __dunpack2
                  0x002486                  __dreturnNaN
                  0x00248c                  __dunpack2exit
                  0x002496                  ___floatdidf
                  0x002504                  ___adddf3
                  0x0025fe                  __dpack
                  0x002656                  __dtype
                  0x00267a                  __dPropagateNaN
                  0x0043be                  _g_RawAccessOutOfBoundsMask
                  0x004464                  _TCPSocketInitializer
                  0x00447c                  _ICPos
                  0x004502                  _MPFS_Start
                  0x00450c                  BEGIN_MPFS
                  0x00c246                  __dbgwrite
                  0x00c254                  _ADCInit
                  0x00c284                  _ADCRefEnable
                  0x00c2a2                  __ADC1Interrupt
                  0x00c2b6                  _ADCVal
                  0x00c2da                  _ADCAttach
                  0x00c306                  _ADCDetach
                  0x00c33a                  _IOPut
                  0x00c456                  _IOInit
                  0x00c96c                  _IOGet
                  0x00c9ea                  _IOButtonState
                  0x00caa8                  _UARTInit
                  0x00cbfe                  _UARTOn
                  0x00ccd4                  _UARTOff
                  0x00cd62                  _UARTRxInt
                  0x00ce60                  _UARTFlush
                  0x00ce8c                  _UARTBufferSize
                  0x00cf20                  _UARTRead
                  0x00cfe2                  _UARTWrite
                  0x00d07a                  _UARTWriteCh
                  0x00d0f0                  _PWMInit
                  0x00d368                  _PWMOn
                  0x00d4ac                  _PWMDuty
                  0x00d522                  _PWMOff
                  0x00d53a                  _I2CInit
                  0x00d556                  _I2CStart
                  0x00d598                  _I2CRestart
                  0x00d5da                  _I2CStop
                  0x00d61c                  _I2CGetDevAck
                  0x00d65a                  _I2CTimeout
                  0x00d66a                  _I2CAddrSizeSet
                  0x00d690                  _I2CAddrSizeGet
                  0x00d69c                  _I2CWrite
                  0x00d71e                  _I2CRead
                  0x00d7c4                  _I2CReadReg
                  0x00d828                  _I2CReadMulti
                  0x00d8e2                  _I2CWriteReg
                  0x00d928                  _I2CWriteMulti
                  0x00d98a                  _I2C2Init
                  0x00d9a2                  _I2C2Start
                  0x00d9e4                  _I2C2Restart
                  0x00da26                  _I2C2Stop
                  0x00da68                  _I2C2GetDevAck
                  0x00daa6                  _I2C2Timeout
                  0x00dab6                  _I2C2AddrSizeSet
                  0x00dadc                  _I2C2AddrSizeGet
                  0x00dae8                  _I2C2Write
                  0x00db6a                  _I2C2Read
                  0x00dc10                  _I2C2ReadReg
                  0x00dc74                  _I2C2ReadMulti
                  0x00dd2e                  _I2C2WriteReg
                  0x00dd74                  _I2C2WriteMulti
                  0x00ddd6                  _EEInit
                  0x00de18                  _EERWDelay
                  0x00de24                  _EESetPageSize
                  0x00de30                  _EEGetPageSize
                  0x00e30a                  _EESaveData
                  0x00e438                  _EELoadData
                  0x00e510                  _EEEraseData
                  0x00e60c                  _EESaveString
                  0x00e624                  _EELoadString
                  0x00e63c                  _EEEraseString
                  0x00e6fe                  _TCPInit
                  0x00e7d4                  _TCPOpen
                  0x00e928                  _TCPWasReset
                  0x00e95c                  _TCPIsConnected
                  0x00e984                  _TCPDisconnect
                  0x00ea28                  _TCPClose
                  0x00ea44                  _TCPGetRemoteInfo
                  0x00ea70                  _TCPFlush
                  0x00ea92                  _TCPIsPutReady
                  0x00eae8                  _TCPPut
                  0x00eb88                  _TCPPutArray
                  0x00ec6a                  _TCPPutString
                  0x00ec88                  _TCPGetTxFIFOFull
                  0x00ecb6                  _TCPDiscard
                  0x00ecd4                  _TCPIsGetReady
                  0x00ed12                  _TCPGet
                  0x00ed84                  _TCPGetArray
                  0x00ee48                  _TCPGetRxFIFOFree
                  0x00ee74                  _TCPPeekArray
                  0x00ef1e                  _TCPPeek
                  0x00ef36                  _TCPFindArrayEx
                  0x00f1c0                  _TCPFindEx
                  0x00f1de                  _TCPTick
                  0x00f66e                  _TCPProcess
                  0x010838                  _TCPAdjustFIFOSize
                  0x010a50                  _HTTPPrint
                  0x010a72                  _HTTPPrint_
                  0x010a8e                  _HTTPInit
                  0x010b16                  _HTTPServer
                  0x0119cc                  _HTTPURLDecode
                  0x011a9a                  _HTTPGetArg
                  0x011ae2                  _HTTPReadPostName
                  0x011b0a                  _HTTPReadPostValue
                  0x011cf8                  _HTTPIncFile
                  0x011dc4                  _SMTPBeginUsage
                  0x011e24                  _SMTPEndUsage
                  0x011e7e                  _SMTPTask
                  0x012a96                  _SMTPSendMail
                  0x012aa6                  _SMTPIsBusy
                  0x012abc                  _SMTPIsPutReady
                  0x012ada                  _SMTPPut
                  0x012b7e                  _SMTPPutArray
                  0x012bba                  _SMTPPutString
                  0x012bf0                  _SMTPFlush
                  0x012bfe                  _SMTPPutDone
                  0x012d76                  _FTPClientOpen
                  0x012d8e                  _FTPRead
                  0x012da4                  _FTPWrite
                  0x012dba                  _FTPClose
                  0x012dcc                  _FTPisConn
                  0x012dda                  _FTPRxLen
                  0x012de8                  _FTPClientPasv
                  0x012fac                  _FTPSendCmd
                  0x013052                  _FTPConnect
                  0x0132be                  _FTPFileCheck
                  0x013354                  _FTPFileSize
                  0x0133fe                  _FTPStore
                  0x013414                  _FTPAppend
                  0x0135fc                  _FTPStreamOpen
                  0x013782                  _FTPStreamWrite
                  0x013854                  _FTPStreamRead
                  0x0139ca                  _FTPStreamClose
                  0x0139ea                  _FTPStreamStat
                  0x0139f4                  _FTPAnswer
                  0x013a50                  _FTPRxFlush
                  0x013b0c                  _FTPRxRead
                  0x013c26                  _WFGetPSK
                  0x013ccc                  _cWFGetPSK
                  0x013d20                  _NETCustomSave
                  0x013dfe                  _NETCustomDelete
                  0x013e4c                  _NETCustomExist
                  0x013e7a                  _NETCustomLoad
                  0x013f12                  _NETSetParam
                  0x0140c0                  _WFGeneric
                  0x014156                  _WFConnect
                  0x0141f4                  _WFDisconnect
                  0x014214                  _WFScan
                  0x014230                  _RSSIUpdate
                  0x01425a                  _cRSSIUpdate
                  0x0142b8                  _RSSIValue
                  0x0142c4                  _RSSIStatus
                  0x0142e6                  _WFScanList
                  0x0143ba                  _WFStopConnecting
                  0x014452                  _WFSetChannel
                  0x0144ba                  _WFSetSecurity
                  0x014506                  _WFHibernate
                  0x014532                  _WFSleep
                  0x01456a                  _WFOn
                  0x01459c                  _WFPsPollEnable
                  0x014652                  _cWFDisconnect
                  0x014672                  _cWFScan
                  0x0146fe                  _cWFScanList
                  0x0147ca                  _WFGetStat
                  0x0147d2                  _cWFStopConnecting
                  0x01480a                  _cWFConnect
                  0x01481e                  _cWFPsPollDisable
                  0x01482a                  _cWFPsPollEnable
                  0x014838                  _MPFSInit
                  0x014862                  _MPFSOpen
                  0x0149b0                  _MPFSOpenID
                  0x014a34                  _MPFSClose
                  0x014a56                  _MPFSGet
                  0x014bfc                  _MPFSGetArray
                  0x014e60                  _MPFSGetLong
                  0x014e80                  _MPFSSeek
                  0x01509a                  _MPFSGetTimestamp
                  0x0150e8                  _MPFSGetMicrotime
                  0x015136                  _MPFSGetFlags
                  0x01517a                  _MPFSGetSize
                  0x0151c8                  _MPFSGetBytesRem
                  0x015210                  _MPFSGetStartAddr
                  0x015260                  _MPFSGetEndAddr
                  0x0152ba                  _MPFSGetFilename
                  0x015322                  _MPFSGetPosition
                  0x015342                  _MPFSGetID
                  0x015392                  _FlyportTask
                  0x01571c                  _state_machine
                  0x015e3a                  _blink
                  0x015e74                  _DHCPServerInit
                  0x015e96                  _DHCPServerSMInit
                  0x015ea0                  _DHCPServerTask
                  0x016916                  _DHCPServer_Disable
                  0x016940                  _DHCPServer_Enable
                  0x01694e                  _DHCPInit
                  0x01699e                  _DHCPDisable
                  0x0169c0                  _DHCPEnable
                  0x0169d8                  _DHCPIsEnabled
                  0x0169f0                  _DHCPIsBound
                  0x0169fe                  _DHCPStateChanged
                  0x016a20                  _DHCPIsServerDetected
                  0x016a30                  _DHCPTempIPAddr
                  0x016a76                  _DHCPTask
                  0x0173e2                  _LFSRSeedRand
                  0x017422                  _LFSRRand
                  0x017490                  _GenerateRandomDWORD
                  0x0175ce                  _StringToIPAddress
                  0x017756                  _IPAddressToString
                  0x017798                  _Base64Decode
                  0x0178d6                  _Base64Encode
                  0x017a32                  _uitoa
                  0x017ab0                  _ultoa
                  0x017b60                  _hexatob
                  0x017bd6                  _btohexa_high
                  0x017bfe                  _btohexa_low
                  0x017c24                  _stricmppgm2ram
                  0x017cbc                  _swaps
                  0x017cd6                  _swapl
                  0x017d34                  _CalcIPChecksum
                  0x017da8                  _strupr
                  0x017de2                  _FormatNetBIOSName
                  0x017e2a                  _strnchr
                  0x017e70                  _xTaskGenericCreate
                  0x017f6c                  _vTaskDelete
                  0x017fd8                  _vTaskDelayUntil
                  0x018050                  _vTaskDelay
                  0x01808c                  _vTaskPrioritySet
                  0x01816a                  _vTaskSuspend
                  0x0181dc                  _xTaskIsTaskSuspended
                  0x01820e                  _vTaskResume
                  0x018270                  _xTaskResumeFromISR
                  0x0182e2                  _vTaskStartScheduler
                  0x018316                  _vTaskEndScheduler
                  0x01832c                  _vTaskSuspendAll
                  0x018338                  _xTaskResumeAll
                  0x0183ea                  _xTaskGetTickCount
                  0x0183fe                  _xTaskGetTickCountFromISR
                  0x01840e                  _uxTaskGetNumberOfTasks
                  0x018416                  _vTaskIncrementTick
                  0x0184d2                  _vTaskSwitchContext
                  0x01852c                  _vTaskPlaceOnEventList
                  0x018564                  _xTaskRemoveFromEventList
                  0x0185d4                  _vTaskSetTimeOutState
                  0x0185e8                  _xTaskCheckForTimeOut
                  0x018654                  _vTaskMissedYield
                  0x01865e                  tasks.o:_prvIdleTask
                  0x018802                  _xTaskGetCurrentTaskHandle
                  0x01880e                  _vTaskPriorityInherit
                  0x018886                  _vTaskPriorityDisinherit
                  0x0188e0                  _DNSInit
                  0x0188f4                  _DNSBeginUsage
                  0x01891a                  _DNSEndUsage
                  0x018950                  _DNSResolve
                  0x018992                  _DNSIsResolved
                  0x019186                  _TCPGenericOpen
                  0x01927a                  _cTCPGenericOpen
                  0x0192a4                  _TCPGenericClose
                  0x019344                  _cTCPGenericClose
                  0x019354                  _TCPServerDetach
                  0x0193f4                  _cTCPServerDetach
                  0x019404                  _TCPClientOpen
                  0x01941a                  _TCPServerOpen
                  0x01942e                  _TCPRead
                  0x0194da                  _TCPpRead
                  0x01958c                  _cTCPpRead
                  0x0195d6                  _cTCPRead
                  0x0195f8                  _TCPWrite
                  0x0196b6                  _cTCPWrite
                  0x0196d6                  _TCPRemote
                  0x01979c                  _cTCPRemote
                  0x0197b8                  _TCPClientClose
                  0x0197c4                  _TCPServerClose
                  0x0197d0                  _TCPisConn
                  0x01987e                  _cTCPisConn
                  0x019890                  _TCPRxFlush
                  0x019930                  _cTCPRxFlush
                  0x019940                  _TCPRxLen
                  0x0199e8                  _cTCPRxLen
                  0x0199fa                  _GetReadPtrRawWindow
                  0x019b20                  _WFPeriodicGratuitousArp
                  0x019ba8                  _RetrieveBinaryKey
                  0x019be2                  _MACProcess
                  0x019c0c                  _WFGetTCBSize
                  0x019c14                  _MACInit
                  0x019c1e                  _RawInit
                  0x019c5e                  _MACIsLinked
                  0x019c68                  _MACIsTxReady
                  0x019c86                  _RawGetMgmtRxBuffer
                  0x019c9a                  _MACDiscardRx
                  0x019cac                  _MACGetFreeRxSize
                  0x019d22                  _MACGetHeader
                  0x019dfe                  _MACPutHeader
                  0x019e5a                  _MACPutGeneralHeader
                  0x019ea8                  _MACFlush
                  0x019eca                  _MACSetReadPtrInRx
                  0x019eda                  _MACSetWritePtr
                  0x019eee                  _MACSetReadPtr
                  0x019f02                  _MACCalcRxChecksum
                  0x019f2a                  _MACMemCopyAsync
                  0x01a152                  _MACIsMemCopyDone
                  0x01a15a                  _MACGet
                  0x01a178                  _MACGetArray
                  0x01a1bc                  _MACPut
                  0x01a1dc                  _MACPutArray
                  0x01a1fc                  _MACPowerDown
                  0x01a202                  _MACPowerUp
                  0x01a208                  _CalcIPBufferChecksum
                  0x01a22a                  _HTTP_Read
                  0x01a526                  _HTTP_Get
                  0x01a5c8                  _HTTP_GetSimple
                  0x01a5f4                  _HTTP_Post
                  0x01a6b6                  _HTTP_PostSimple
                  0x01a6ec                  _HTTP_Put
                  0x01a7a2                  _HTTP_URLEncode
                  0x01a8b4                  _HTTP_URLEncodeLen
                  0x01a91c                  _HTTP_URLDecode
                  0x01a9fa                  _HTTP_URLDecodeLen
                  0x01aa3c                  _UDPGenericOpen
                  0x01ab04                  _cUDPGenericOpen
                  0x01aba4                  _UDPLocalPort
                  0x01abbc                  _UDPServerOpen
                  0x01abd0                  _UDPClientOpen
                  0x01abf8                  _UDPBroadcastOpen
                  0x01ac0c                  _UDPGenericClose
                  0x01ac9c                  _cUDPGenericClose
                  0x01acd0                  _UDPServerClose
                  0x01acde                  _UDPClientClose
                  0x01acec                  _UDPRxLen
                  0x01ad00                  _UDPRxFlush
                  0x01ad50                  _UDPRxOver
                  0x01ad82                  _UDPRead
                  0x01aeb0                  _UDPpRead
                  0x01afa0                  _UDPWrite
                  0x01b04c                  _cUDPWrite
                  0x01b088                  _UDPMultiOn
                  0x01b132                  _cUDPMultiOn
                  0x01b1da                  _UDPMultiOpen
                  0x01b23c                  _UDPInit
                  0x01b25e                  _UDPOpenEx
                  0x01b37e                  _UDPTask
                  0x01b564                  _UDPIsOpened
                  0x01b586                  _UDPClose
                  0x01b5be                  _UDPSetTxBuffer
                  0x01b5d2                  _UDPSetRxBuffer
                  0x01b5e6                  _UDPIsPutReady
                  0x01b61e                  _UDPPut
                  0x01b652                  _UDPPutArray
                  0x01b68a                  _UDPPutString
                  0x01b6a0                  _UDPFlush
                  0x01b700                  _UDPIsGetReady
                  0x01b73c                  _UDPGet
                  0x01b774                  _UDPGetArray
                  0x01b7c0                  _UDPDiscard
                  0x01b7e8                  _UDPProcess
                  0x01c114                  _SPIFlashInit
                  0x01c232                  _SPIFlashReadArray
                  0x01c324                  _SPIFlashBeginWrite
                  0x01c332                  _SPIFlashWrite
                  0x01c450                  _SPIFlashWriteArray
                  0x01c692                  _SPIFlashEraseSector
                  0x01c7b4                  _xQueueGenericReset
                  0x01c842                  _xQueueGenericCreate
                  0x01c8a4                  _xQueueCreateMutex
                  0x01c90a                  _xQueueGenericSend
                  0x01c9f4                  _xQueueGenericSendFromISR
                  0x01ca5e                  _xQueueGenericReceive
                  0x01cba4                  _xQueueReceiveFromISR
                  0x01cc10                  _uxQueueMessagesWaiting
                  0x01cc28                  _uxQueueMessagesWaitingFromISR
                  0x01cc38                  _vQueueDelete
                  0x01cdd8                  _xQueueIsQueueEmptyFromISR
                  0x01ce1c                  _xQueueIsQueueFullFromISR
                  0x01ce3c                  _HTTPExecuteGet
                  0x01ce44                  _HTTPExecutePost
                  0x01d446                  _HTTPNeedsAuth
                  0x01d468                  _HTTPCheckAuth
                  0x01d496                  _CmdCheck
                  0x01d7d6                  _main
                  0x01d82e                  _TCPIPTask
                  0x01dae6                  _WiFiTask
                  0x01db6a                  _WFProcess
                  0x01db9c                  _SignalDHCPSuccessful
                  0x01dbaa                  _SetDhcpProgressState
                  0x01dbc2                  _SignalWiFiConnectionChanged
                  0x01dc70                  _Read8BitWFRegister
                  0x01dc9a                  _Write8BitWFRegister
                  0x01dcc2                  _Read16BitWFRegister
                  0x01dcf6                  _Write16BitWFRegister
                  0x01dd2a                  _WriteWFArray
                  0x01dd5a                  _ReadWFArray
                  0x01de9e                  _WFEintHandler
                  0x01df48                  _ReenablePowerSaveMode
                  0x01df52                  _WFHardwareInit
                  0x01e118                  _WF_OutputConnectionContext
                  0x01e1aa                  _WF_OutputConnectionDebugMsg
                  0x01e3f2                  _WF_OutputConnectionInfo
                  0x01e680                  _WF_AssertionFailed
                  0x01e6f0                  _WF_DisplayModuleAssertInfo
                  0x01e740                  _ReadBatteryLevel
                  0x01e762                  _GroveDevicesPowerSupply
                  0x01e782                  x_groveboard-pro.o:_Board_ctor
                  0x01e87a                  _attachSensorToI2CBus
                  0x01e92c                  _attachSensorToDigioBus
                  0x01ea4e                  _attachSensorToAnBus
                  0x01eb16                  _attachSensorToUartBus
                  0x01ec34                  _HashAddData
                  0x01ec50                  _MD5Initialize
                  0x01ec8c                  _MD5AddData
                  0x01ef8e                  _MD5Calculate
                  0x01f112                  __IC1Interrupt
                  0x01f14c                  __IC2Interrupt
                  0x01f166                  __IC3Interrupt
                  0x01f1a0                  __IC4Interrupt
                  0x01f1ba                  __IC5Interrupt
                  0x01f1f4                  __IC6Interrupt
                  0x01f20e                  _IOInit_
                  0x01f2b6                  _ICInit
                  0x01f350                  _ICOn
                  0x01f422                  _ICOff
                  0x01f490                  _OneWireDecode
                  0x01f5ec                  _WFEnableMRF24WB0MMode
                  0x01f5fe                  _WFEnableDebugPrint
                  0x01f60e                  _WF_SetLinkDownThreshold
                  0x01f61e                  _WF_SetTxMode
                  0x01f62e                  _WF_GetTxMode
                  0x01f63e                  _WFEnableBroadcastProbeResponse
                  0x01f650                  _WF_GetDeviceInfo
                  0x01f6a6                  _WF_SetMacAddress
                  0x01f6b6                  _WF_GetMacAddress
                  0x01f6c6                  _WF_MulticastSetConfig
                  0x01f772                  _WF_MulticastGetConfig
                  0x01f7d8                  _WF_SetTxDataConfirm
                  0x01f7e8                  _WF_GetTxDataConfirm
                  0x01f7f8                  _WF_SetRegionalDomain
                  0x01f808                  _WF_GetRegionalDomain
                  0x01f818                  _WF_SetRtsThreshold
                  0x01f842                  _WF_YieldPassphrase2Host
                  0x01f854                  _WF_SetPSK
                  0x01f864                  _WF_GetRtsThreshold
                  0x01f882                  _WF_SetMultiCastFilter
                  0x01f8f8                  _WF_EnableSWMultiCastFilter
                  0x01f90a                  _WF_GetMacStats
                  0x01fa3e                  _SendSetParamMsg
                  0x01fa6e                  _SendGetParamMsg
                  0x01faa2                  _RawCalculateChecksum
                  0x01fabe                  _AllocateMgmtTxBuffer
                  0x01fb10                  _DeallocateMgmtRxBuffer
                  0x01fb20                  _AllocateDataTxBuffer
                  0x01fb7c                  _SendRAWDataFrame
                  0x01fba6                  _SendRAWManagementFrame
                  0x01fbb8                  _DeallocateDataRxBuffer
                  0x01fbe2                  _RawMountRxBuffer
                  0x01fc12                  _RawToRawCopy
                  0x01fc40                  _PushRawWindow
                  0x01fc52                  _PopRawWindow
                  0x01fc6a                  _ScratchMount
                  0x01fc8e                  _ScratchUnmount
                  0x01fca0                  _RawRead
                  0x01fcbc                  _RawWrite
                  0x01fd5a                  _RawSetIndex
                  0x01fde6                  _RawGetIndex
                  0x01fe02                  _RawGetByte
                  0x01fe3e                  _RawSetByte
                  0x01ff3c                  _WF_CASetElements
                  0x01fff4                  _WF_CASetElementsN
                  0x020028                  _WF_CAGetElements
                  0x020072                  _WF_CASetScanType
                  0x020082                  _WF_CAGetScanType
                  0x020094                  _WF_CASetMinChannelTime
                  0x0200ae                  _WF_CAGetMinChannelTime
                  0x0200ce                  _WF_CASetMaxChannelTime
                  0x0200e8                  _WF_CAGetMaxChannelTime
                  0x020108                  _WF_CASetProbeDelay
                  0x020122                  _WF_CAGetProbeDelay
                  0x020142                  _WF_CASetScanCount
                  0x020152                  _WF_CAGetScanCount
                  0x020164                  _WF_CASetRssi
                  0x020174                  _WF_CAGetRssi
                  0x020186                  _WF_CASetListRetryCount
                  0x020196                  _WF_CAGetListRetryCount
                  0x0201a8                  _WF_CASetEventNotificationAction
                  0x0201b4                  _WF_CAGetEventNotificationAction
                  0x0201c4                  _WF_CASetBeaconTimeoutAction
                  0x0201d4                  _WF_CAGetBeaconTimeoutAction
                  0x0201e6                  _WF_CASetDeauthAction
                  0x0201f6                  _WF_CAGetDeauthAction
                  0x020208                  _WF_CASetChannelList
                  0x02021a                  _WF_CAGetChannelList
                  0x020256                  _WF_CASetListenInterval
                  0x020270                  _WF_CASetDtimInterval
                  0x02028a                  _WF_CAGetListenInterval
                  0x0202aa                  _WF_CASetBeaconPeriod
                  0x0202c4                  _WF_CAGetBeaconPeriod
                  0x0202e4                  _WF_CAGetDtimInterval
                  0x020304                  _WF_CASetBeaconTimeout
                  0x020314                  _WF_CAGetBeaconTimeout
                  0x020332                  _GetEventNotificationMask
                  0x0203b4                  _WF_DisableModuleConnectionManager
                  0x0203c6                  _ARPSendPkt
                  0x02048a                  _ARPInit
                  0x0204e4                  _ARPProcess
                  0x0205fc                  _ARPResolve
                  0x0206e0                  _ARPIsResolved
                  0x020802                  _SwapARPPacket
                  0x020834                  _StackInit
                  0x0208a2                  _StackTask
                  0x020c7a                  _StackApplications
                  0x020c94                  _RenewDhcp
                  0x020ca2                  _NBNSInit
                  0x020cac                  _NBNSTask
                  0x021068                  _GenericSMTP
                  0x021110                  _SMTPStart
                  0x02111a                  _cSMTPStart
                  0x021128                  _SMTPSetServer
                  0x0211c8                  _cSMTPSetServer
                  0x021214                  _SMTPSetMsg
                  0x0212b4                  _cSMTPSetMsg
                  0x021310                  _SMTPSend
                  0x02131a                  _cSMTPSend
                  0x02132a                  _SMTPBusy
                  0x021334                  _cSMTPBusy
                  0x021342                  _SMTPStop
                  0x02134c                  _cSMTPStop
                  0x021366                  _SMTPReport
                  0x02140c                  _cSMTPReport
                  0x02141a                  _WF_CPCreate
                  0x021448                  _WF_CPDelete
                  0x02146c                  _WF_CPGetIds
                  0x021494                  _WF_CPSetElements
                  0x0214ba                  _WF_CPGetElements
                  0x0214d0                  _WF_CPSetSsidType
                  0x0214e4                  _WF_CPGetSsidType
                  0x0214fa                  _WF_CPSetSsid
                  0x021520                  _WF_CPGetSsid
                  0x021560                  _WF_CPSetBssid
                  0x021574                  _WF_CPGetBssid
                  0x02158a                  _WF_CPSetNetworkType
                  0x02159e                  _WF_CPGetNetworkType
                  0x0215b4                  _WF_CPSetWepKeyType
                  0x0215c8                  _WF_CPGetWepKeyType
                  0x0215de                  _WF_CPGetWPSCredentials
                  0x0215f4                  _WF_CPUpdatePMK
                  0x021608                  _WF_CPSetSecurity
                  0x021680                  _WF_CPGetSecurity
                  0x0216ea                  _WF_CPSetDefaultWepKeyIndex
                  0x0216fe                  _WF_CPGetDefaultWepKeyIndex
                  0x021714                  _WF_CPSetAdHocBehavior
                  0x021728                  _WF_CPGetAdHocBehavior
                  0x0217bc                  _DisplayIPValue
                  0x0217f6                  _InitAppConfig
                  0x021a46                  _WFProcessMgmtIndicateMsg
                  0x021c98                  _new
                  0x021cc2                  _delete_
                  0x021cf4                  _delet_
                  0x021d02                  _attachToBoard
                  0x021d4e                  _configure
                  0x021d8a                  _set
                  0x021dc6                  _get
                  0x021e16                  _readError
                  0x021eca                  _SNTPInit
                  0x021eda                  _SNTPClient
                  0x0220a2                  _SNTPGetUTCSeconds
                  0x0220fa                  _IPGetHeader
                  0x02220c                  _IPPutHeader
                  0x0222b4                  _IPSetRxBuffer
                  0x022358                  x_sonic_ranger.o:_Ranger_ctor
                  0x02236e                  x_sonic_ranger.o:_Ranger_dtor
                  0x022394                  x_sonic_ranger.o:_Ranger_attach
                  0x0223b8                  x_sonic_ranger.o:_Ranger_configure
                  0x0223f4                  x_sonic_ranger.o:_Ranger_get
                  0x0224ee                  x_digital_io-pro.o:_Dig_io_ctor
                  0x022588                  x_digital_io-pro.o:_Dig_io_dtor
                  0x0225c6                  x_digital_io-pro.o:_Dig_io_attach
                  0x022606                  x_digital_io-pro.o:_Dig_io_set_dig_io
                  0x0226aa                  x_digital_io-pro.o:_Dig_io_get_dig_io
                  0x0226d0                  _SendMgmtMsg
                  0x022756                  _SignalMgmtConfirmReceivedEvent
                  0x022760                  _WaitForMgmtResponse
                  0x022800                  _WaitForMgmtResponseAndReadData
                  0x022862                  _WFSetFuncState
                  0x02288e                  _nothigToDo
                  0x022894                  _INTDetach
                  0x0228c4                  _INTAttach
                  0x0228f6                  _INTInit
                  0x02298e                  _INTPriority
                  0x0229ee                  _INTEnable
                  0x022a1e                  _INTDisable
                  0x022a48                  __U1RXInterrupt
                  0x022a68                  __U2RXInterrupt
                  0x022a88                  __U3RXInterrupt
                  0x022aa8                  __U4RXInterrupt
                  0x022aae                  __DefaultInterrupt
                  0x022ad8                  __OscillatorFail
                  0x022b02                  __AddressError
                  0x022b2c                  __StackError
                  0x022b56                  __MathError
                  0x022b80                  __INT2Interrupt
                  0x022ba8                  __INT3Interrupt
                  0x022bd0                  __INT4Interrupt
                  0x022bf8                  _pvPortMalloc
                  0x022ce8                  _vPortFree
                  0x022d44                  _xPortGetFreeHeapSize
                  0x022d4c                  _vPortInitialiseBlocks
                  0x022d82                  _AnnounceInit
                  0x022d8c                  _AnnounceIP
                  0x022e18                  _DiscoveryTask
                  0x022f0a                  _WFConfigureLowPowerMode
                  0x022f4a                  _WF_PsPollEnable
                  0x022f8c                  _isSleepNeeded
                  0x022f94                  _ClearSleepNeeded
                  0x022f9e                  _SetSleepNeeded
                  0x022fa8                  _SetAppPowerSaveMode
                  0x022fb4                  _GetAppPowerSaveMode
                  0x022fbc                  _WF_PsPollDisable
                  0x022fde                  _WF_GetPowerSaveState
                  0x022fee                  _WFisPsPollEnabled
                  0x023010                  _WFIsPsPollActive
                  0x023018                  _EnsureWFisAwake
                  0x02303a                  _WF_HibernateEnable
                  0x023068                  _SetPowerSaveState
                  0x023074                  _pxPortInitialiseStack
                  0x02310a                  _xPortStartScheduler
                  0x02313a                  _vPortEndScheduler
                  0x02316e                  _vPortEnterCritical
                  0x023182                  _vPortExitCritical
                  0x02319c                  __T5Interrupt
                  0x0231ca                  _WF_CMConnect
                  0x02321a                  _WF_CMDisconnect
                  0x023252                  _WF_CMGetConnectionState
                  0x0232a8                  _WFisConnected
                  0x0232b0                  _SetLogicalConnectionState
                  0x0232bc                  _WF_CMCheckConnectionState
                  0x0232f8                  _WF_CMGetConnectContext
                  0x02330a                  _TickInit
                  0x02338e                  _TickGet
                  0x02339a                  _TickGetDiv256
                  0x0233ca                  _TickGetDiv64K
                  0x0233fa                  _TickConvertToMilliseconds
                  0x023420                  __T1Interrupt
                  0x023438                  _vListInitialise
                  0x02346a                  _vListInitialiseItem
                  0x023478                  _vListInsertEnd
                  0x0234bc                  _vListInsert
                  0x02351c                  _uxListRemove
                  0x023564                  _HWInit
                  0x023676                  _DelayMs
                  0x0236a2                  _Delay10us
                  0x023786                  _WF_ProcessEvent
                  0x023890                  _ARPResolveMAC
                  0x02394c                  _cARPResolveMAC
                  0x023998                  __addBI
                  0x0239b8                  __subBI
                  0x0239d8                  __zeroBI
                  0x0239e4                  __msbBI
                  0x0239f4                  __mulBI
                  0x023a2a                  __sqrBI
                  0x023a34                  __masBI
                  0x023a56                  __copyBI
                  0x023a74                  _WF_SpiInit
                  0x023a94                  _WF_SpiEnableChipSelect
                  0x023a9c                  _WF_SpiDisableChipSelect
                  0x023aa6                  _WFSpiTxRx
                  0x023b48                  _WF_Connect
                  0x023c34                  _WF_Scan
                  0x023c72                  _WF_ScanGetResult
                  0x023cc2                  _WF_EintIsDisabled
                  0x023cd4                  _WF_EintIsPending
                  0x023cf6                  __INT1Interrupt
                  0x023d30                  _WF_EintEnable
                  0x023d42                  _WF_EintDisable
                  0x023d4a                  _WF_EintInit
                  0x023d5c                  _set_register
                  0x023db8                  _read_register
                  0x023df4                  _WF_TxPowerSetMax
                  0x023e36                  _WF_TxPowerGetMax
                  0x023e62                  _WF_TxPowerGetFactoryMax
                  0x023e7c                  x_analog_in-pro.o:_An_i_ctor
                  0x023e92                  x_analog_in-pro.o:_An_i_dtor
                  0x023eb8                  x_analog_in-pro.o:_An_i_attach
                  0x023eda                  x_analog_in-pro.o:_An_i_getan_i
                  0x023f00                  _ICMPProcess
                  0x023f7e                  _OnConnectionSuccessful
                  0x023f8e                  _OnConnectionFailed
                  0x023f98                  _OnConnectionTempLost
                  0x023fa2                  _OnConnectionReestablished
                  0x023fb2                  _OnConnectionPermLost
                  0x023fbc                  _OnScanResult
                  0x023fec                  _WF_Init
                  0x024054                  _vPortYield
                  0x0240a8                  _ReadProgramMemory

External Symbols in Program Memory (by name):

                  0x00450c                  BEGIN_MPFS
                  0x00c2da                  _ADCAttach
                  0x00c306                  _ADCDetach
                  0x00c254                  _ADCInit
                  0x00c284                  _ADCRefEnable
                  0x00c2b6                  _ADCVal
                  0x02048a                  _ARPInit
                  0x0206e0                  _ARPIsResolved
                  0x0204e4                  _ARPProcess
                  0x0205fc                  _ARPResolve
                  0x023890                  _ARPResolveMAC
                  0x0203c6                  _ARPSendPkt
                  0x01fb20                  _AllocateDataTxBuffer
                  0x01fabe                  _AllocateMgmtTxBuffer
                  0x022d8c                  _AnnounceIP
                  0x022d82                  _AnnounceInit
                  0x017798                  _Base64Decode
                  0x0178d6                  _Base64Encode
                  0x01a208                  _CalcIPBufferChecksum
                  0x017d34                  _CalcIPChecksum
                  0x022f94                  _ClearSleepNeeded
                  0x01d496                  _CmdCheck
                  0x01699e                  _DHCPDisable
                  0x0169c0                  _DHCPEnable
                  0x01694e                  _DHCPInit
                  0x0169f0                  _DHCPIsBound
                  0x0169d8                  _DHCPIsEnabled
                  0x016a20                  _DHCPIsServerDetected
                  0x015e74                  _DHCPServerInit
                  0x015e96                  _DHCPServerSMInit
                  0x015ea0                  _DHCPServerTask
                  0x016916                  _DHCPServer_Disable
                  0x016940                  _DHCPServer_Enable
                  0x0169fe                  _DHCPStateChanged
                  0x016a76                  _DHCPTask
                  0x016a30                  _DHCPTempIPAddr
                  0x0188f4                  _DNSBeginUsage
                  0x01891a                  _DNSEndUsage
                  0x0188e0                  _DNSInit
                  0x018992                  _DNSIsResolved
                  0x018950                  _DNSResolve
                  0x01fbb8                  _DeallocateDataRxBuffer
                  0x01fb10                  _DeallocateMgmtRxBuffer
                  0x0236a2                  _Delay10us
                  0x023676                  _DelayMs
                  0x022e18                  _DiscoveryTask
                  0x0217bc                  _DisplayIPValue
                  0x00e510                  _EEEraseData
                  0x00e63c                  _EEEraseString
                  0x00de30                  _EEGetPageSize
                  0x00ddd6                  _EEInit
                  0x00e438                  _EELoadData
                  0x00e624                  _EELoadString
                  0x00de18                  _EERWDelay
                  0x00e30a                  _EESaveData
                  0x00e60c                  _EESaveString
                  0x00de24                  _EESetPageSize
                  0x023018                  _EnsureWFisAwake
                  0x0139f4                  _FTPAnswer
                  0x013414                  _FTPAppend
                  0x012d76                  _FTPClientOpen
                  0x012de8                  _FTPClientPasv
                  0x012dba                  _FTPClose
                  0x013052                  _FTPConnect
                  0x0132be                  _FTPFileCheck
                  0x013354                  _FTPFileSize
                  0x012d8e                  _FTPRead
                  0x013a50                  _FTPRxFlush
                  0x012dda                  _FTPRxLen
                  0x013b0c                  _FTPRxRead
                  0x012fac                  _FTPSendCmd
                  0x0133fe                  _FTPStore
                  0x0139ca                  _FTPStreamClose
                  0x0135fc                  _FTPStreamOpen
                  0x013854                  _FTPStreamRead
                  0x0139ea                  _FTPStreamStat
                  0x013782                  _FTPStreamWrite
                  0x012da4                  _FTPWrite
                  0x012dcc                  _FTPisConn
                  0x015392                  _FlyportTask
                  0x017de2                  _FormatNetBIOSName
                  0x017490                  _GenerateRandomDWORD
                  0x021068                  _GenericSMTP
                  0x022fb4                  _GetAppPowerSaveMode
                  0x020332                  _GetEventNotificationMask
                  0x0199fa                  _GetReadPtrRawWindow
                  0x01e762                  _GroveDevicesPowerSupply
                  0x01d468                  _HTTPCheckAuth
                  0x01ce3c                  _HTTPExecuteGet
                  0x01ce44                  _HTTPExecutePost
                  0x011a9a                  _HTTPGetArg
                  0x011cf8                  _HTTPIncFile
                  0x010a8e                  _HTTPInit
                  0x01d446                  _HTTPNeedsAuth
                  0x010a50                  _HTTPPrint
                  0x010a72                  _HTTPPrint_
                  0x011ae2                  _HTTPReadPostName
                  0x011b0a                  _HTTPReadPostValue
                  0x010b16                  _HTTPServer
                  0x0119cc                  _HTTPURLDecode
                  0x01a526                  _HTTP_Get
                  0x01a5c8                  _HTTP_GetSimple
                  0x01a5f4                  _HTTP_Post
                  0x01a6b6                  _HTTP_PostSimple
                  0x01a6ec                  _HTTP_Put
                  0x01a22a                  _HTTP_Read
                  0x01a91c                  _HTTP_URLDecode
                  0x01a9fa                  _HTTP_URLDecodeLen
                  0x01a7a2                  _HTTP_URLEncode
                  0x01a8b4                  _HTTP_URLEncodeLen
                  0x023564                  _HWInit
                  0x01ec34                  _HashAddData
                  0x00dadc                  _I2C2AddrSizeGet
                  0x00dab6                  _I2C2AddrSizeSet
                  0x00da68                  _I2C2GetDevAck
                  0x00d98a                  _I2C2Init
                  0x00db6a                  _I2C2Read
                  0x00dc74                  _I2C2ReadMulti
                  0x00dc10                  _I2C2ReadReg
                  0x00d9e4                  _I2C2Restart
                  0x00d9a2                  _I2C2Start
                  0x00da26                  _I2C2Stop
                  0x00daa6                  _I2C2Timeout
                  0x00dae8                  _I2C2Write
                  0x00dd74                  _I2C2WriteMulti
                  0x00dd2e                  _I2C2WriteReg
                  0x00d690                  _I2CAddrSizeGet
                  0x00d66a                  _I2CAddrSizeSet
                  0x00d61c                  _I2CGetDevAck
                  0x00d53a                  _I2CInit
                  0x00d71e                  _I2CRead
                  0x00d828                  _I2CReadMulti
                  0x00d7c4                  _I2CReadReg
                  0x00d598                  _I2CRestart
                  0x00d556                  _I2CStart
                  0x00d5da                  _I2CStop
                  0x00d65a                  _I2CTimeout
                  0x00d69c                  _I2CWrite
                  0x00d928                  _I2CWriteMulti
                  0x00d8e2                  _I2CWriteReg
                  0x01f2b6                  _ICInit
                  0x023f00                  _ICMPProcess
                  0x01f422                  _ICOff
                  0x01f350                  _ICOn
                  0x00447c                  _ICPos
                  0x0228c4                  _INTAttach
                  0x022894                  _INTDetach
                  0x022a1e                  _INTDisable
                  0x0229ee                  _INTEnable
                  0x0228f6                  _INTInit
                  0x02298e                  _INTPriority
                  0x00c9ea                  _IOButtonState
                  0x00c96c                  _IOGet
                  0x00c456                  _IOInit
                  0x01f20e                  _IOInit_
                  0x00c33a                  _IOPut
                  0x017756                  _IPAddressToString
                  0x0220fa                  _IPGetHeader
                  0x02220c                  _IPPutHeader
                  0x0222b4                  _IPSetRxBuffer
                  0x0217f6                  _InitAppConfig
                  0x017422                  _LFSRRand
                  0x0173e2                  _LFSRSeedRand
                  0x019f02                  _MACCalcRxChecksum
                  0x019c9a                  _MACDiscardRx
                  0x019ea8                  _MACFlush
                  0x01a15a                  _MACGet
                  0x01a178                  _MACGetArray
                  0x019cac                  _MACGetFreeRxSize
                  0x019d22                  _MACGetHeader
                  0x019c14                  _MACInit
                  0x019c5e                  _MACIsLinked
                  0x01a152                  _MACIsMemCopyDone
                  0x019c68                  _MACIsTxReady
                  0x019f2a                  _MACMemCopyAsync
                  0x01a1fc                  _MACPowerDown
                  0x01a202                  _MACPowerUp
                  0x019be2                  _MACProcess
                  0x01a1bc                  _MACPut
                  0x01a1dc                  _MACPutArray
                  0x019e5a                  _MACPutGeneralHeader
                  0x019dfe                  _MACPutHeader
                  0x019eee                  _MACSetReadPtr
                  0x019eca                  _MACSetReadPtrInRx
                  0x019eda                  _MACSetWritePtr
                  0x01ec8c                  _MD5AddData
                  0x01ef8e                  _MD5Calculate
                  0x01ec50                  _MD5Initialize
                  0x014a34                  _MPFSClose
                  0x014a56                  _MPFSGet
                  0x014bfc                  _MPFSGetArray
                  0x0151c8                  _MPFSGetBytesRem
                  0x015260                  _MPFSGetEndAddr
                  0x0152ba                  _MPFSGetFilename
                  0x015136                  _MPFSGetFlags
                  0x015342                  _MPFSGetID
                  0x014e60                  _MPFSGetLong
                  0x0150e8                  _MPFSGetMicrotime
                  0x015322                  _MPFSGetPosition
                  0x01517a                  _MPFSGetSize
                  0x015210                  _MPFSGetStartAddr
                  0x01509a                  _MPFSGetTimestamp
                  0x014838                  _MPFSInit
                  0x014862                  _MPFSOpen
                  0x0149b0                  _MPFSOpenID
                  0x014e80                  _MPFSSeek
                  0x004502                  _MPFS_Start
                  0x020ca2                  _NBNSInit
                  0x020cac                  _NBNSTask
                  0x013dfe                  _NETCustomDelete
                  0x013e4c                  _NETCustomExist
                  0x013e7a                  _NETCustomLoad
                  0x013d20                  _NETCustomSave
                  0x013f12                  _NETSetParam
                  0x023f8e                  _OnConnectionFailed
                  0x023fb2                  _OnConnectionPermLost
                  0x023fa2                  _OnConnectionReestablished
                  0x023f7e                  _OnConnectionSuccessful
                  0x023f98                  _OnConnectionTempLost
                  0x023fbc                  _OnScanResult
                  0x01f490                  _OneWireDecode
                  0x00d4ac                  _PWMDuty
                  0x00d0f0                  _PWMInit
                  0x00d522                  _PWMOff
                  0x00d368                  _PWMOn
                  0x01fc52                  _PopRawWindow
                  0x01fc40                  _PushRawWindow
                  0x0142c4                  _RSSIStatus
                  0x014230                  _RSSIUpdate
                  0x0142b8                  _RSSIValue
                  0x01faa2                  _RawCalculateChecksum
                  0x01fe02                  _RawGetByte
                  0x01fde6                  _RawGetIndex
                  0x019c86                  _RawGetMgmtRxBuffer
                  0x019c1e                  _RawInit
                  0x01fbe2                  _RawMountRxBuffer
                  0x01fca0                  _RawRead
                  0x01fe3e                  _RawSetByte
                  0x01fd5a                  _RawSetIndex
                  0x01fc12                  _RawToRawCopy
                  0x01fcbc                  _RawWrite
                  0x01dcc2                  _Read16BitWFRegister
                  0x01dc70                  _Read8BitWFRegister
                  0x01e740                  _ReadBatteryLevel
                  0x0240a8                  _ReadProgramMemory
                  0x01dd5a                  _ReadWFArray
                  0x01df48                  _ReenablePowerSaveMode
                  0x020c94                  _RenewDhcp
                  0x019ba8                  _RetrieveBinaryKey
                  0x011dc4                  _SMTPBeginUsage
                  0x02132a                  _SMTPBusy
                  0x011e24                  _SMTPEndUsage
                  0x012bf0                  _SMTPFlush
                  0x012aa6                  _SMTPIsBusy
                  0x012abc                  _SMTPIsPutReady
                  0x012ada                  _SMTPPut
                  0x012b7e                  _SMTPPutArray
                  0x012bfe                  _SMTPPutDone
                  0x012bba                  _SMTPPutString
                  0x021366                  _SMTPReport
                  0x021310                  _SMTPSend
                  0x012a96                  _SMTPSendMail
                  0x021214                  _SMTPSetMsg
                  0x021128                  _SMTPSetServer
                  0x021110                  _SMTPStart
                  0x021342                  _SMTPStop
                  0x011e7e                  _SMTPTask
                  0x021eda                  _SNTPClient
                  0x0220a2                  _SNTPGetUTCSeconds
                  0x021eca                  _SNTPInit
                  0x01c324                  _SPIFlashBeginWrite
                  0x01c692                  _SPIFlashEraseSector
                  0x01c114                  _SPIFlashInit
                  0x01c232                  _SPIFlashReadArray
                  0x01c332                  _SPIFlashWrite
                  0x01c450                  _SPIFlashWriteArray
                  0x01fc6a                  _ScratchMount
                  0x01fc8e                  _ScratchUnmount
                  0x01fa6e                  _SendGetParamMsg
                  0x0226d0                  _SendMgmtMsg
                  0x01fb7c                  _SendRAWDataFrame
                  0x01fba6                  _SendRAWManagementFrame
                  0x01fa3e                  _SendSetParamMsg
                  0x022fa8                  _SetAppPowerSaveMode
                  0x01dbaa                  _SetDhcpProgressState
                  0x0232b0                  _SetLogicalConnectionState
                  0x023068                  _SetPowerSaveState
                  0x022f9e                  _SetSleepNeeded
                  0x01db9c                  _SignalDHCPSuccessful
                  0x022756                  _SignalMgmtConfirmReceivedEvent
                  0x01dbc2                  _SignalWiFiConnectionChanged
                  0x020c7a                  _StackApplications
                  0x020834                  _StackInit
                  0x0208a2                  _StackTask
                  0x0175ce                  _StringToIPAddress
                  0x020802                  _SwapARPPacket
                  0x010838                  _TCPAdjustFIFOSize
                  0x0197b8                  _TCPClientClose
                  0x019404                  _TCPClientOpen
                  0x00ea28                  _TCPClose
                  0x00ecb6                  _TCPDiscard
                  0x00e984                  _TCPDisconnect
                  0x00ef36                  _TCPFindArrayEx
                  0x00f1c0                  _TCPFindEx
                  0x00ea70                  _TCPFlush
                  0x0192a4                  _TCPGenericClose
                  0x019186                  _TCPGenericOpen
                  0x00ed12                  _TCPGet
                  0x00ed84                  _TCPGetArray
                  0x00ea44                  _TCPGetRemoteInfo
                  0x00ee48                  _TCPGetRxFIFOFree
                  0x00ec88                  _TCPGetTxFIFOFull
                  0x01d82e                  _TCPIPTask
                  0x00e6fe                  _TCPInit
                  0x00e95c                  _TCPIsConnected
                  0x00ecd4                  _TCPIsGetReady
                  0x00ea92                  _TCPIsPutReady
                  0x00e7d4                  _TCPOpen
                  0x00ef1e                  _TCPPeek
                  0x00ee74                  _TCPPeekArray
                  0x00f66e                  _TCPProcess
                  0x00eae8                  _TCPPut
                  0x00eb88                  _TCPPutArray
                  0x00ec6a                  _TCPPutString
                  0x01942e                  _TCPRead
                  0x0196d6                  _TCPRemote
                  0x019890                  _TCPRxFlush
                  0x019940                  _TCPRxLen
                  0x0197c4                  _TCPServerClose
                  0x019354                  _TCPServerDetach
                  0x01941a                  _TCPServerOpen
                  0x004464                  _TCPSocketInitializer
                  0x00f1de                  _TCPTick
                  0x00e928                  _TCPWasReset
                  0x0195f8                  _TCPWrite
                  0x0197d0                  _TCPisConn
                  0x0194da                  _TCPpRead
                  0x0233fa                  _TickConvertToMilliseconds
                  0x02338e                  _TickGet
                  0x02339a                  _TickGetDiv256
                  0x0233ca                  _TickGetDiv64K
                  0x02330a                  _TickInit
                  0x00ce8c                  _UARTBufferSize
                  0x00ce60                  _UARTFlush
                  0x00caa8                  _UARTInit
                  0x00ccd4                  _UARTOff
                  0x00cbfe                  _UARTOn
                  0x00cf20                  _UARTRead
                  0x00cd62                  _UARTRxInt
                  0x00cfe2                  _UARTWrite
                  0x00d07a                  _UARTWriteCh
                  0x01abf8                  _UDPBroadcastOpen
                  0x01acde                  _UDPClientClose
                  0x01abd0                  _UDPClientOpen
                  0x01b586                  _UDPClose
                  0x01b7c0                  _UDPDiscard
                  0x01b6a0                  _UDPFlush
                  0x01ac0c                  _UDPGenericClose
                  0x01aa3c                  _UDPGenericOpen
                  0x01b73c                  _UDPGet
                  0x01b774                  _UDPGetArray
                  0x01b23c                  _UDPInit
                  0x01b700                  _UDPIsGetReady
                  0x01b564                  _UDPIsOpened
                  0x01b5e6                  _UDPIsPutReady
                  0x01aba4                  _UDPLocalPort
                  0x01b088                  _UDPMultiOn
                  0x01b1da                  _UDPMultiOpen
                  0x01b25e                  _UDPOpenEx
                  0x01b7e8                  _UDPProcess
                  0x01b61e                  _UDPPut
                  0x01b652                  _UDPPutArray
                  0x01b68a                  _UDPPutString
                  0x01ad82                  _UDPRead
                  0x01ad00                  _UDPRxFlush
                  0x01acec                  _UDPRxLen
                  0x01ad50                  _UDPRxOver
                  0x01acd0                  _UDPServerClose
                  0x01abbc                  _UDPServerOpen
                  0x01b5d2                  _UDPSetRxBuffer
                  0x01b5be                  _UDPSetTxBuffer
                  0x01b37e                  _UDPTask
                  0x01afa0                  _UDPWrite
                  0x01aeb0                  _UDPpRead
                  0x022f0a                  _WFConfigureLowPowerMode
                  0x014156                  _WFConnect
                  0x0141f4                  _WFDisconnect
                  0x01de9e                  _WFEintHandler
                  0x01f63e                  _WFEnableBroadcastProbeResponse
                  0x01f5fe                  _WFEnableDebugPrint
                  0x01f5ec                  _WFEnableMRF24WB0MMode
                  0x0140c0                  _WFGeneric
                  0x013c26                  _WFGetPSK
                  0x0147ca                  _WFGetStat
                  0x019c0c                  _WFGetTCBSize
                  0x01df52                  _WFHardwareInit
                  0x014506                  _WFHibernate
                  0x023010                  _WFIsPsPollActive
                  0x01456a                  _WFOn
                  0x019b20                  _WFPeriodicGratuitousArp
                  0x01db6a                  _WFProcess
                  0x021a46                  _WFProcessMgmtIndicateMsg
                  0x01459c                  _WFPsPollEnable
                  0x014214                  _WFScan
                  0x0142e6                  _WFScanList
                  0x014452                  _WFSetChannel
                  0x022862                  _WFSetFuncState
                  0x0144ba                  _WFSetSecurity
                  0x014532                  _WFSleep
                  0x023aa6                  _WFSpiTxRx
                  0x0143ba                  _WFStopConnecting
                  0x01e680                  _WF_AssertionFailed
                  0x0202c4                  _WF_CAGetBeaconPeriod
                  0x020314                  _WF_CAGetBeaconTimeout
                  0x0201d4                  _WF_CAGetBeaconTimeoutAction
                  0x02021a                  _WF_CAGetChannelList
                  0x0201f6                  _WF_CAGetDeauthAction
                  0x0202e4                  _WF_CAGetDtimInterval
                  0x020028                  _WF_CAGetElements
                  0x0201b4                  _WF_CAGetEventNotificationAction
                  0x020196                  _WF_CAGetListRetryCount
                  0x02028a                  _WF_CAGetListenInterval
                  0x0200e8                  _WF_CAGetMaxChannelTime
                  0x0200ae                  _WF_CAGetMinChannelTime
                  0x020122                  _WF_CAGetProbeDelay
                  0x020174                  _WF_CAGetRssi
                  0x020152                  _WF_CAGetScanCount
                  0x020082                  _WF_CAGetScanType
                  0x0202aa                  _WF_CASetBeaconPeriod
                  0x020304                  _WF_CASetBeaconTimeout
                  0x0201c4                  _WF_CASetBeaconTimeoutAction
                  0x020208                  _WF_CASetChannelList
                  0x0201e6                  _WF_CASetDeauthAction
                  0x020270                  _WF_CASetDtimInterval
                  0x01ff3c                  _WF_CASetElements
                  0x01fff4                  _WF_CASetElementsN
                  0x0201a8                  _WF_CASetEventNotificationAction
                  0x020186                  _WF_CASetListRetryCount
                  0x020256                  _WF_CASetListenInterval
                  0x0200ce                  _WF_CASetMaxChannelTime
                  0x020094                  _WF_CASetMinChannelTime
                  0x020108                  _WF_CASetProbeDelay
                  0x020164                  _WF_CASetRssi
                  0x020142                  _WF_CASetScanCount
                  0x020072                  _WF_CASetScanType
                  0x0232bc                  _WF_CMCheckConnectionState
                  0x0231ca                  _WF_CMConnect
                  0x02321a                  _WF_CMDisconnect
                  0x0232f8                  _WF_CMGetConnectContext
                  0x023252                  _WF_CMGetConnectionState
                  0x02141a                  _WF_CPCreate
                  0x021448                  _WF_CPDelete
                  0x021728                  _WF_CPGetAdHocBehavior
                  0x021574                  _WF_CPGetBssid
                  0x0216fe                  _WF_CPGetDefaultWepKeyIndex
                  0x0214ba                  _WF_CPGetElements
                  0x02146c                  _WF_CPGetIds
                  0x02159e                  _WF_CPGetNetworkType
                  0x021680                  _WF_CPGetSecurity
                  0x021520                  _WF_CPGetSsid
                  0x0214e4                  _WF_CPGetSsidType
                  0x0215de                  _WF_CPGetWPSCredentials
                  0x0215c8                  _WF_CPGetWepKeyType
                  0x021714                  _WF_CPSetAdHocBehavior
                  0x021560                  _WF_CPSetBssid
                  0x0216ea                  _WF_CPSetDefaultWepKeyIndex
                  0x021494                  _WF_CPSetElements
                  0x02158a                  _WF_CPSetNetworkType
                  0x021608                  _WF_CPSetSecurity
                  0x0214fa                  _WF_CPSetSsid
                  0x0214d0                  _WF_CPSetSsidType
                  0x0215b4                  _WF_CPSetWepKeyType
                  0x0215f4                  _WF_CPUpdatePMK
                  0x023b48                  _WF_Connect
                  0x0203b4                  _WF_DisableModuleConnectionManager
                  0x01e6f0                  _WF_DisplayModuleAssertInfo
                  0x023d42                  _WF_EintDisable
                  0x023d30                  _WF_EintEnable
                  0x023d4a                  _WF_EintInit
                  0x023cc2                  _WF_EintIsDisabled
                  0x023cd4                  _WF_EintIsPending
                  0x01f8f8                  _WF_EnableSWMultiCastFilter
                  0x01f650                  _WF_GetDeviceInfo
                  0x01f6b6                  _WF_GetMacAddress
                  0x01f90a                  _WF_GetMacStats
                  0x022fde                  _WF_GetPowerSaveState
                  0x01f808                  _WF_GetRegionalDomain
                  0x01f864                  _WF_GetRtsThreshold
                  0x01f7e8                  _WF_GetTxDataConfirm
                  0x01f62e                  _WF_GetTxMode
                  0x02303a                  _WF_HibernateEnable
                  0x023fec                  _WF_Init
                  0x01f772                  _WF_MulticastGetConfig
                  0x01f6c6                  _WF_MulticastSetConfig
                  0x01e118                  _WF_OutputConnectionContext
                  0x01e1aa                  _WF_OutputConnectionDebugMsg
                  0x01e3f2                  _WF_OutputConnectionInfo
                  0x023786                  _WF_ProcessEvent
                  0x022fbc                  _WF_PsPollDisable
                  0x022f4a                  _WF_PsPollEnable
                  0x023c34                  _WF_Scan
                  0x023c72                  _WF_ScanGetResult
                  0x01f60e                  _WF_SetLinkDownThreshold
                  0x01f6a6                  _WF_SetMacAddress
                  0x01f882                  _WF_SetMultiCastFilter
                  0x01f854                  _WF_SetPSK
                  0x01f7f8                  _WF_SetRegionalDomain
                  0x01f818                  _WF_SetRtsThreshold
                  0x01f7d8                  _WF_SetTxDataConfirm
                  0x01f61e                  _WF_SetTxMode
                  0x023a9c                  _WF_SpiDisableChipSelect
                  0x023a94                  _WF_SpiEnableChipSelect
                  0x023a74                  _WF_SpiInit
                  0x023e62                  _WF_TxPowerGetFactoryMax
                  0x023e36                  _WF_TxPowerGetMax
                  0x023df4                  _WF_TxPowerSetMax
                  0x01f842                  _WF_YieldPassphrase2Host
                  0x0232a8                  _WFisConnected
                  0x022fee                  _WFisPsPollEnabled
                  0x022760                  _WaitForMgmtResponse
                  0x022800                  _WaitForMgmtResponseAndReadData
                  0x01dae6                  _WiFiTask
                  0x01dcf6                  _Write16BitWFRegister
                  0x01dc9a                  _Write8BitWFRegister
                  0x01dd2a                  _WriteWFArray
                  0x00c2a2                  __ADC1Interrupt
                  0x022b02                  __AddressError
                  0x022aae                  __DefaultInterrupt
                  0x001a58                  __Dnorm
                  0x0017f0                  __Genld
                  0x0008e0                  __Geterrno
                  0x000a5e                  __Getmem
                  0x01f112                  __IC1Interrupt
                  0x01f14c                  __IC2Interrupt
                  0x01f166                  __IC3Interrupt
                  0x01f1a0                  __IC4Interrupt
                  0x01f1ba                  __IC5Interrupt
                  0x01f1f4                  __IC6Interrupt
                  0x023cf6                  __INT1Interrupt
                  0x022b80                  __INT2Interrupt
                  0x022ba8                  __INT3Interrupt
                  0x022bd0                  __INT4Interrupt
                  0x0016c0                  __LDscale
                  0x001668                  __LDunscale
                  0x001216                  __Ldtob
                  0x000f04                  __Litob
                  0x022b56                  __MathError
                  0x022ad8                  __OscillatorFail
                  0x0008ec                  __Printf
                  0x000c0a                  __Putfld
                  0x000a76                  __Puttxt
                  0x022b2c                  __StackError
                  0x000470                  __Stoul
                  0x023420                  __T1Interrupt
                  0x02319c                  __T5Interrupt
                  0x022a48                  __U1RXInterrupt
                  0x022a68                  __U2RXInterrupt
                  0x022a88                  __U3RXInterrupt
                  0x022aa8                  __U4RXInterrupt
                  0x000a6c                  __Vacopy
                  0x002504                  ___adddf3
                  0x001c92                  ___addsf3
                  0x0021f0                  ___divdf3
                  0x001ec6                  ___divdi3
                  0x001b7c                  ___divsf3
                  0x002072                  ___divsi3
                  0x002090                  ___eqdf2
                  0x001db8                  ___eqsf2
                  0x00202e                  ___extendsfdf2
                  0x00209a                  ___fixdfsi
                  0x001c04                  ___fixunssfsi
                  0x002496                  ___floatdidf
                  0x0020f2                  ___floatsidf
                  0x001c3a                  ___floatsisf
                  0x0020fc                  ___gedf2
                  0x001c00                  ___gesf2
                  0x0020fc                  ___gtdf2
                  0x001c00                  ___gtsf2
                  0x0008ec                  ___iPrintf
                  0x000c0a                  ___iPutfld
                  0x002090                  ___ledf2
                  0x001db8                  ___lesf2
                  0x002090                  ___ltdf2
                  0x001db8                  ___ltsf2
                  0x001f00                  ___moddi3
                  0x002106                  ___muldf3
                  0x001fd2                  ___muldi3
                  0x001b06                  ___mulp32eds3
                  0x001b06                  ___mulp32peds3
                  0x001d4c                  ___mulsf3
                  0x001b06                  ___mulsi3
                  0x001db4                  ___nesf2
                  0x0020f8                  ___subdf3
                  0x001c90                  ___subsf3
                  0x001eb0                  ___udivdi3
                  0x001de2                  ___udivmoddi3
                  0x001b5c                  ___udivsi3
                  0x001ebe                  ___umoddi3
                  0x00206c                  ___umodsi3
                  0x002380                  ___umuldi3
                  0x023998                  __addBI
                  0x023a56                  __copyBI
                  0x00267a                  __dPropagateNaN
                  0x00022e                  __data_init
                  0x00022e                  __data_init_extended
                  0x00c246                  __dbgwrite
                  0x0023c4                  __dcompare
                  0x0025fe                  __dpack
                  0x002486                  __dreturnNaN
                  0x002656                  __dtype
                  0x002416                  __dunpack
                  0x002464                  __dunpack2
                  0x00248c                  __dunpack2exit
                  0x0022b4                  __fPropagateNaN
                  0x0022c6                  __fbopExit
                  0x0022ce                  __fbopReturnNaN
                  0x002320                  __fcompare
                  0x000394                  __flash_helper1
                  0x0003b0                  __flash_helper2
                  0x0003b4                  __flash_helper3
                  0x0003d8                  __flash_helper4
                  0x0003da                  __flash_helper5
                  0x0003e8                  __flash_helper6
                  0x0022d4                  __fpack
                  0x002356                  __funpack
                  0x0022a4                  __funpack2
                  0x0006f8                  __isprintf
                  0x023a34                  __masBI
                  0x0239e4                  __msbBI
                  0x0239f4                  __mulBI
                  0x000222                  __psv_init
                  0x000200                  __resetPRI
                  0x023a2a                  __sqrBI
                  0x0239b8                  __subBI
                  0x0239d8                  __zeroBI
                  0x01ea4e                  _attachSensorToAnBus
                  0x01e92c                  _attachSensorToDigioBus
                  0x01e87a                  _attachSensorToI2CBus
                  0x01eb16                  _attachSensorToUartBus
                  0x021d02                  _attachToBoard
                  0x015e3a                  _blink
                  0x017bd6                  _btohexa_high
                  0x017bfe                  _btohexa_low
                  0x02394c                  _cARPResolveMAC
                  0x01425a                  _cRSSIUpdate
                  0x021334                  _cSMTPBusy
                  0x02140c                  _cSMTPReport
                  0x02131a                  _cSMTPSend
                  0x0212b4                  _cSMTPSetMsg
                  0x0211c8                  _cSMTPSetServer
                  0x02111a                  _cSMTPStart
                  0x02134c                  _cSMTPStop
                  0x019344                  _cTCPGenericClose
                  0x01927a                  _cTCPGenericOpen
                  0x0195d6                  _cTCPRead
                  0x01979c                  _cTCPRemote
                  0x019930                  _cTCPRxFlush
                  0x0199e8                  _cTCPRxLen
                  0x0193f4                  _cTCPServerDetach
                  0x0196b6                  _cTCPWrite
                  0x01987e                  _cTCPisConn
                  0x01958c                  _cTCPpRead
                  0x01ac9c                  _cUDPGenericClose
                  0x01ab04                  _cUDPGenericOpen
                  0x01b132                  _cUDPMultiOn
                  0x01b04c                  _cUDPWrite
                  0x01480a                  _cWFConnect
                  0x014652                  _cWFDisconnect
                  0x013ccc                  _cWFGetPSK
                  0x01481e                  _cWFPsPollDisable
                  0x01482a                  _cWFPsPollEnable
                  0x014672                  _cWFScan
                  0x0146fe                  _cWFScanList
                  0x0147d2                  _cWFStopConnecting
                  0x000848                  _calloc
                  0x021d4e                  _configure
                  0x021cf4                  _delet_
                  0x021cc2                  _delete_
                  0x001af0                  _div
                  0x00073c                  _free
                  0x0043be                  _g_RawAccessOutOfBoundsMask
                  0x021dc6                  _get
                  0x017b60                  _hexatob
                  0x022f8c                  _isSleepNeeded
                  0x0008ae                  _isspace
                  0x0017b6                  _ldiv
                  0x01d7d6                  _main
                  0x0007a4                  _malloc
                  0x0008cc                  _memchr
                  0x000688                  _memcmp
                  0x0006a4                  _memcpy
                  0x0003ee                  _memset
                  0x021c98                  _new
                  0x02288e                  _nothigToDo
                  0x022bf8                  _pvPortMalloc
                  0x023074                  _pxPortInitialiseStack
                  0x0005bc                  _rand
                  0x021e16                  _readError
                  0x023db8                  _read_register
                  0x021d8a                  _set
                  0x023d5c                  _set_register
                  0x0006f8                  _sprintf
                  0x000666                  _srand
                  0x01571c                  _state_machine
                  0x000452                  _strcat
                  0x0006b2                  _strchr
                  0x000598                  _strcmp
                  0x000434                  _strcpy
                  0x00088a                  _strcspn
                  0x017c24                  _stricmppgm2ram
                  0x000444                  _strlen
                  0x017e2a                  _strnchr
                  0x00071a                  _strncpy
                  0x000866                  _strspn
                  0x0006c4                  _strstr
                  0x0003fc                  _strtok
                  0x017da8                  _strupr
                  0x017cd6                  _swapl
                  0x017cbc                  _swaps
                  0x0008be                  _tolower
                  0x017a32                  _uitoa
                  0x017ab0                  _ultoa
                  0x02351c                  _uxListRemove
                  0x01cc10                  _uxQueueMessagesWaiting
                  0x01cc28                  _uxQueueMessagesWaitingFromISR
                  0x01840e                  _uxTaskGetNumberOfTasks
                  0x023438                  _vListInitialise
                  0x02346a                  _vListInitialiseItem
                  0x0234bc                  _vListInsert
                  0x023478                  _vListInsertEnd
                  0x02313a                  _vPortEndScheduler
                  0x02316e                  _vPortEnterCritical
                  0x023182                  _vPortExitCritical
                  0x022ce8                  _vPortFree
                  0x022d4c                  _vPortInitialiseBlocks
                  0x024054                  _vPortYield
                  0x01cc38                  _vQueueDelete
                  0x018050                  _vTaskDelay
                  0x017fd8                  _vTaskDelayUntil
                  0x017f6c                  _vTaskDelete
                  0x018316                  _vTaskEndScheduler
                  0x018416                  _vTaskIncrementTick
                  0x018654                  _vTaskMissedYield
                  0x01852c                  _vTaskPlaceOnEventList
                  0x018886                  _vTaskPriorityDisinherit
                  0x01880e                  _vTaskPriorityInherit
                  0x01808c                  _vTaskPrioritySet
                  0x01820e                  _vTaskResume
                  0x0185d4                  _vTaskSetTimeOutState
                  0x0182e2                  _vTaskStartScheduler
                  0x01816a                  _vTaskSuspend
                  0x01832c                  _vTaskSuspendAll
                  0x0184d2                  _vTaskSwitchContext
                  0x022d44                  _xPortGetFreeHeapSize
                  0x02310a                  _xPortStartScheduler
                  0x01c8a4                  _xQueueCreateMutex
                  0x01c842                  _xQueueGenericCreate
                  0x01ca5e                  _xQueueGenericReceive
                  0x01c7b4                  _xQueueGenericReset
                  0x01c90a                  _xQueueGenericSend
                  0x01c9f4                  _xQueueGenericSendFromISR
                  0x01cdd8                  _xQueueIsQueueEmptyFromISR
                  0x01ce1c                  _xQueueIsQueueFullFromISR
                  0x01cba4                  _xQueueReceiveFromISR
                  0x0185e8                  _xTaskCheckForTimeOut
                  0x017e70                  _xTaskGenericCreate
                  0x018802                  _xTaskGetCurrentTaskHandle
                  0x0183ea                  _xTaskGetTickCount
                  0x0183fe                  _xTaskGetTickCountFromISR
                  0x0181dc                  _xTaskIsTaskSuspended
                  0x018564                  _xTaskRemoveFromEventList
                  0x018338                  _xTaskResumeAll
                  0x018270                  _xTaskResumeFromISR
                  0x0006ec                  sprintf.o:_prout
                  0x01865e                  tasks.o:_prvIdleTask
                  0x023eb8                  x_analog_in-pro.o:_An_i_attach
                  0x023e7c                  x_analog_in-pro.o:_An_i_ctor
                  0x023e92                  x_analog_in-pro.o:_An_i_dtor
                  0x023eda                  x_analog_in-pro.o:_An_i_getan_i
                  0x0225c6                  x_digital_io-pro.o:_Dig_io_attach
                  0x0224ee                  x_digital_io-pro.o:_Dig_io_ctor
                  0x022588                  x_digital_io-pro.o:_Dig_io_dtor
                  0x0226aa                  x_digital_io-pro.o:_Dig_io_get_dig_io
                  0x022606                  x_digital_io-pro.o:_Dig_io_set_dig_io
                  0x01e782                  x_groveboard-pro.o:_Board_ctor
                  0x022394                  x_sonic_ranger.o:_Ranger_attach
                  0x0223b8                  x_sonic_ranger.o:_Ranger_configure
                  0x022358                  x_sonic_ranger.o:_Ranger_ctor
                  0x02236e                  x_sonic_ranger.o:_Ranger_dtor
                  0x0223f4                  x_sonic_ranger.o:_Ranger_get

Memory Configuration

Name             Origin             Length             Attributes
data             0x000800           0x018000           a !xr
reset            0x000000           0x000004  
ivt              0x000004           0x0000fc  
aivt             0x000104           0x0000fc  
program          0x000200           0x02a9f8           xr
CONFIG4          0x02abf8           0x000002  
CONFIG3          0x02abfa           0x000002  
CONFIG2          0x02abfc           0x000002  
CONFIG1          0x02abfe           0x000002  
*default*        0x000000           0xffffffff  

Linker script and memory map

LOAD Announce.o
LOAD ARCFOUR.o
LOAD ARP.o
LOAD ARPlib.o
LOAD BigInt.o
LOAD BigInt_helper.o
LOAD Delay.o
LOAD DHCP.o
LOAD DHCPs.o
LOAD DNS.o
LOAD DNSs.o
LOAD DynDNS.o
LOAD ENCX24J600.o
LOAD FTP.o
LOAD FTPlib.o
LOAD Hashes.o
LOAD heap_2.o
LOAD Helpers.o
LOAD HTTP2.o
LOAD HTTPApp.o
LOAD HWInit.o
LOAD HWlib.o
LOAD ICMP.o
LOAD INTlib.o
LOAD IP.o
LOAD ISRs.o
LOAD list.o
LOAD Main.o
LOAD MPFS2.o
LOAD MPFSImg2.o
LOAD NBNS.o
LOAD NETlib.o
LOAD port.o
LOAD portasm_PIC24.o
LOAD queue.o
LOAD Random.o
LOAD Reboot.o
LOAD Regs.o
LOAD RSA.o
LOAD RTCClib.o
LOAD SMTP.o
LOAD SMTPlib.o
LOAD SNTP.o
LOAD SPIFlash.o
LOAD SSL.o
LOAD StackTsk.o
LOAD taskFlyport.o
LOAD tasks.o
LOAD TCP.o
LOAD TCPIP_Utils.o
LOAD TCPlib.o
LOAD Tick.o
LOAD UDP.o
LOAD UDPlib.o
LOAD WFConnectionAlgorithm.o
LOAD WFConnectionManager.o
LOAD WFConnectionProfile.o
LOAD WFDataTxRx.o
LOAD WFDebugStrings.o
LOAD WFDriverCom.o
LOAD WFDriverCom_24G.o
LOAD WFDriverRaw.o
LOAD WFDriverRaw_24G.o
LOAD WFEventHandler.o
LOAD WFInit.o
LOAD WFMac.o
LOAD WFMac_24G.o
LOAD WFMgmtMsg.o
LOAD WFMgmtMsg_24G.o
LOAD WFParamMsg.o
LOAD WFParamMsg_24G.o
LOAD WFPowerSave.o
LOAD WFScan.o
LOAD WFTxPower.o
LOAD WF_Config.o
LOAD WF_Eint.o
LOAD WF_Events.o
LOAD WF_Spi.o
LOAD WF_Utils.o
LOAD x_analog_in-pro.o
LOAD x_digital_io-pro.o
LOAD x_groveboard-pro.o
LOAD x_grovelib-pro.o
LOAD x_heap.o
LOAD x_HTTPlib.o
LOAD x_i2c_devices-pro.o
LOAD x_input_capture.o
LOAD x_sonic_ranger.o
LOAD ZeroconfHelper.o
LOAD ZeroconfLinkLocal.o
LOAD ZeroconfMulticastDNS.o
LOAD c:/program files (x86)/microchip/mplab c30/bin/bin/../../lib/PIC24F\libpPIC24Fxxx-coff.a
                    0x2abf8                  __CONFIG4 = 0x2abf8
                    0x2abfa                  __CONFIG3 = 0x2abfa
                    0x2abfc                  __CONFIG2 = 0x2abfc
                    0x2abfe                  __CONFIG1 = 0x2abfe
                    0x0004                  __IVT_BASE = 0x4
                    0x0104                  __AIVT_BASE = 0x104
                    0x0800                  __DATA_BASE = 0x800
                    0x0200                  __CODE_BASE = 0x200

.reset            0x000000          0x4
                  0x000000          0x2 SHORT 0x200 <code 339> (__reset)
                  0x000001          0x2 SHORT 0x4
                  0x000002          0x2 SHORT 0x0 ((<code 339> (__reset) >> 0x10) & 0x7f)
                  0x000003          0x2 SHORT 0x0

.text             0x000200       0x2496
 *(.init)
 .init            0x000200         0x2e c:/program files (x86)/microchip/mplab c30/bin/bin/../../lib\libpic30-coff.a(crt0_extended.o)
                  0x000200                  _resetPRI
                  0x000200                  _reset
                  0x000222                  _psv_init
 .init            0x00022e         0x9a c:/program files (x86)/microchip/mplab c30/bin/bin/../../lib\libpic30-coff.a(data_init_extended.o)
                  0x00022e                  _data_init
                  0x00022e                  _data_init_extended
 *(.user_init)
 *(.handle)
 .handle          0x0002c8         0xcc jump_table
 *(.libc)
 .libc            0x000394         0x5a c:/program files (x86)/microchip/mplab c30/bin/bin/../../lib\libpic30-coff.a(flash_helper.o)
                  0x000394                  _flash_helper1
                  0x0003b0                  _flash_helper2
                  0x0003b4                  _flash_helper3
                  0x0003d8                  _flash_helper4
                  0x0003da                  _flash_helper5
                  0x0003e8                  _flash_helper6
 .libc            0x0003ee          0xe c:/program files (x86)/microchip/mplab c30/bin/bin/../../lib\libc-coff.a(memset.o)
                  0x0003ee                  memset
 .libc            0x0003fc         0x38 c:/program files (x86)/microchip/mplab c30/bin/bin/../../lib\libc-coff.a(strtok.o)
                  0x0003fc                  strtok
 .libc            0x000434         0x10 c:/program files (x86)/microchip/mplab c30/bin/bin/../../lib\libc-coff.a(strcpy.o)
                  0x000434                  strcpy
 .libc            0x000444          0xe c:/program files (x86)/microchip/mplab c30/bin/bin/../../lib\libc-coff.a(strlen.o)
                  0x000444                  strlen
 .libc            0x000452         0x1e c:/program files (x86)/microchip/mplab c30/bin/bin/../../lib\libc-coff.a(strcat.o)
                  0x000452                  strcat
 .libc            0x000470        0x128 c:/program files (x86)/microchip/mplab c30/bin/bin/../../lib\libc-coff.a(xstoul.o)
                  0x000470                  _Stoul
 .libc            0x000598         0x24 c:/program files (x86)/microchip/mplab c30/bin/bin/../../lib\libc-coff.a(strcmp.o)
                  0x000598                  strcmp
 .libc            0x0005bc         0xaa c:/program files (x86)/microchip/mplab c30/bin/bin/../../lib\libc-coff.a(rand.o)
                  0x0005bc                  rand
 .libc            0x000666         0x22 c:/program files (x86)/microchip/mplab c30/bin/bin/../../lib\libc-coff.a(srand.o)
                  0x000666                  srand
 .libc            0x000688         0x1c c:/program files (x86)/microchip/mplab c30/bin/bin/../../lib\libc-coff.a(memcmp.o)
                  0x000688                  memcmp
 .libc            0x0006a4          0xe c:/program files (x86)/microchip/mplab c30/bin/bin/../../lib\libc-coff.a(memcpy.o)
                  0x0006a4                  memcpy
 .libc            0x0006b2         0x12 c:/program files (x86)/microchip/mplab c30/bin/bin/../../lib\libc-coff.a(strchr.o)
                  0x0006b2                  strchr
 .libc            0x0006c4         0x28 c:/program files (x86)/microchip/mplab c30/bin/bin/../../lib\libc-coff.a(strstr.o)
                  0x0006c4                  strstr
 .libc            0x0006ec         0x2e c:/program files (x86)/microchip/mplab c30/bin/bin/../../lib\libc-coff.a(sprintf.o)
                  0x0006ec                  sprintf.o:_prout
                  0x0006f8                  _isprintf
                  0x0006f8                  sprintf
 .libc            0x00071a         0x22 c:/program files (x86)/microchip/mplab c30/bin/bin/../../lib\libc-coff.a(strncpy.o)
                  0x00071a                  strncpy
 .libc            0x00073c         0x68 c:/program files (x86)/microchip/mplab c30/bin/bin/../../lib\libc-coff.a(free.o)
                  0x00073c                  free
 .libc            0x0007a4         0xa4 c:/program files (x86)/microchip/mplab c30/bin/bin/../../lib\libc-coff.a(malloc.o)
                  0x0007a4                  malloc
 .libc            0x000848         0x1e c:/program files (x86)/microchip/mplab c30/bin/bin/../../lib\libc-coff.a(calloc.o)
                  0x000848                  calloc
 .libc            0x000866         0x24 c:/program files (x86)/microchip/mplab c30/bin/bin/../../lib\libc-coff.a(strspn.o)
                  0x000866                  strspn
 .libc            0x00088a         0x24 c:/program files (x86)/microchip/mplab c30/bin/bin/../../lib\libc-coff.a(strcspn.o)
                  0x00088a                  strcspn
 .libc            0x0008ae         0x10 c:/program files (x86)/microchip/mplab c30/bin/bin/../../lib\libc-coff.a(isspace.o)
                  0x0008ae                  isspace
 .libc            0x0008be          0xe c:/program files (x86)/microchip/mplab c30/bin/bin/../../lib\libc-coff.a(tolower.o)
                  0x0008be                  tolower
 .libc            0x0008cc         0x14 c:/program files (x86)/microchip/mplab c30/bin/bin/../../lib\libc-coff.a(memchr.o)
                  0x0008cc                  memchr
 .libc            0x0008e0          0xc c:/program files (x86)/microchip/mplab c30/bin/bin/../../lib\libc-coff.a(errno.o)
                  0x0008e0                  _Geterrno
 .libc            0x0008ec        0x172 c:/program files (x86)/microchip/mplab c30/bin/bin/../../lib\libc-coff.a(xprintf.o)
                  0x0008ec                  _Printf
                  0x0008ec                  __iPrintf
 .libc            0x000a5e          0xe c:/program files (x86)/microchip/mplab c30/bin/bin/../../lib\libc-coff.a(xgetmem.o)
                  0x000a5e                  _Getmem
 .libc            0x000a6c          0xa c:/program files (x86)/microchip/mplab c30/bin/bin/../../lib\libc-coff.a(xvacopy.o)
                  0x000a6c                  _Vacopy
 .libc            0x000a76        0x194 c:/program files (x86)/microchip/mplab c30/bin/bin/../../lib\libc-coff.a(xputtxt.o)
                  0x000a76                  _Puttxt
 .libc            0x000c0a        0x2fa c:/program files (x86)/microchip/mplab c30/bin/bin/../../lib\libc-coff.a(xputfld.o)
                  0x000c0a                  __iPutfld
                  0x000c0a                  _Putfld
 .libc            0x000f04        0x312 c:/program files (x86)/microchip/mplab c30/bin/bin/../../lib\libc-coff.a(xlitob.o)
                  0x000f04                  _Litob
 .libc            0x001216        0x452 c:/program files (x86)/microchip/mplab c30/bin/bin/../../lib\libc-coff.a(xldtob.o)
                  0x001216                  _Ldtob
 .libc            0x001668         0x58 c:/program files (x86)/microchip/mplab c30/bin/bin/../../lib\libc-coff.a(xldunsca.o)
                  0x001668                  _LDunscale
 .libc            0x0016c0         0xf6 c:/program files (x86)/microchip/mplab c30/bin/bin/../../lib\libc-coff.a(xldscale.o)
                  0x0016c0                  _LDscale
 .libc            0x0017b6         0x3a c:/program files (x86)/microchip/mplab c30/bin/bin/../../lib\libc-coff.a(ldiv.o)
                  0x0017b6                  ldiv
 .libc            0x0017f0        0x268 c:/program files (x86)/microchip/mplab c30/bin/bin/../../lib\libc-coff.a(xgenld.o)
                  0x0017f0                  _Genld
 .libc            0x001a58         0x98 c:/program files (x86)/microchip/mplab c30/bin/bin/../../lib\libc-coff.a(xdnorm.o)
                  0x001a58                  _Dnorm
 .libc            0x001af0         0x16 c:/program files (x86)/microchip/mplab c30/bin/bin/../../lib\libc-coff.a(div.o)
                  0x001af0                  div
 .libc            0x001b06          0xc c:/program files (x86)/microchip/mplab c30/bin/bin/../../lib\libm-coff.a(mulsi3.o)
                  0x001b06                  __mulp32peds3
                  0x001b06                  __mulsi3
                  0x001b06                  __mulp32eds3
 .libc            0x001b12         0x2c c:/program files (x86)/microchip/mplab c30/bin/bin/../../lib\libpic30-coff.a(sbrk.o)
                  0x001b12                  sbrk
 .libc            0x001b3e         0x1e c:/program files (x86)/microchip/mplab c30/bin/bin/../../lib\libpic30-coff.a(brk.o)
                  0x001b3e                  brk
 *(.libm)
 .libm            0x001b5c         0x20 c:/program files (x86)/microchip/mplab c30/bin/bin/../../lib\libm-coff.a(udivsi3.o)
                  0x001b5c                  __udivsi3
 .libm            0x001b7c         0x84 c:/program files (x86)/microchip/mplab c30/bin/bin/../../lib\libm-coff.a(divsf3.o)
                  0x001b7c                  __divsf3
 .libm            0x001c00          0x4 c:/program files (x86)/microchip/mplab c30/bin/bin/../../lib\libm-coff.a(fgtge.o)
                  0x001c00                  __gesf2
                  0x001c00                  __gtsf2
 .libm            0x001c04         0x36 c:/program files (x86)/microchip/mplab c30/bin/bin/../../lib\libm-coff.a(fixunssfsi.o)
                  0x001c04                  __fixunssfsi
 .libm            0x001c3a         0x56 c:/program files (x86)/microchip/mplab c30/bin/bin/../../lib\libm-coff.a(floatsisf.o)
                  0x001c3a                  __floatsisf
 .libm            0x001c90         0xbc c:/program files (x86)/microchip/mplab c30/bin/bin/../../lib\libm-coff.a(addsf3.o)
                  0x001c90                  __subsf3
                  0x001c92                  __addsf3
 .libm            0x001d4c         0x68 c:/program files (x86)/microchip/mplab c30/bin/bin/../../lib\libm-coff.a(mulsf3.o)
                  0x001d4c                  __mulsf3
 .libm            0x001db4          0x4 c:/program files (x86)/microchip/mplab c30/bin/bin/../../lib\libm-coff.a(fne.o)
                  0x001db4                  __nesf2
 .libm            0x001db8          0x4 c:/program files (x86)/microchip/mplab c30/bin/bin/../../lib\libm-coff.a(feqltle.o)
                  0x001db8                  __eqsf2
                  0x001db8                  __ltsf2
                  0x001db8                  __lesf2
 .libm            0x001dbc        0x216 c:/program files (x86)/microchip/mplab c30/bin/bin/../../lib\libm-coff.a(divmoddi3.o)
                  0x001de2                  __udivmoddi3
                  0x001eb0                  __udivdi3
                  0x001ebe                  __umoddi3
                  0x001ec6                  __divdi3
                  0x001f00                  __moddi3
 .libm            0x001fd2         0x5c c:/program files (x86)/microchip/mplab c30/bin/bin/../../lib\libm-coff.a(muldi3.o)
                  0x001fd2                  __muldi3
 .libm            0x00202e         0x3e c:/program files (x86)/microchip/mplab c30/bin/bin/../../lib\libm-coff.a(extendsfdf.o)
                  0x00202e                  __extendsfdf2
 .libm            0x00206c          0x6 c:/program files (x86)/microchip/mplab c30/bin/bin/../../lib\libm-coff.a(umodsi3.o)
                  0x00206c                  __umodsi3
 .libm            0x002072         0x1e c:/program files (x86)/microchip/mplab c30/bin/bin/../../lib\libm-coff.a(divsi3.o)
                  0x002072                  __divsi3
 .libm            0x002090          0xa c:/program files (x86)/microchip/mplab c30/bin/bin/../../lib\libm-coff.a(deqltle.o)
                  0x002090                  __eqdf2
                  0x002090                  __ltdf2
                  0x002090                  __ledf2
 .libm            0x00209a         0x58 c:/program files (x86)/microchip/mplab c30/bin/bin/../../lib\libm-coff.a(fixdfsi.o)
                  0x00209a                  __fixdfsi
 .libm            0x0020f2          0x6 c:/program files (x86)/microchip/mplab c30/bin/bin/../../lib\libm-coff.a(floatsidf.o)
                  0x0020f2                  __floatsidf
 .libm            0x0020f8          0x4 c:/program files (x86)/microchip/mplab c30/bin/bin/../../lib\libm-coff.a(subdf3.o)
                  0x0020f8                  __subdf3
 .libm            0x0020fc          0xa c:/program files (x86)/microchip/mplab c30/bin/bin/../../lib\libm-coff.a(dgtge.o)
                  0x0020fc                  __gtdf2
                  0x0020fc                  __gedf2
 .libm            0x002106         0xea c:/program files (x86)/microchip/mplab c30/bin/bin/../../lib\libm-coff.a(muldf3.o)
                  0x002106                  __muldf3
 .libm            0x0021f0         0xb4 c:/program files (x86)/microchip/mplab c30/bin/bin/../../lib\libm-coff.a(divdf3.o)
                  0x0021f0                  __divdf3
 .libm            0x0022a4         0x10 c:/program files (x86)/microchip/mplab c30/bin/bin/../../lib\libm-coff.a(funpack2.o)
                  0x0022a4                  _funpack2
 .libm            0x0022b4         0x20 c:/program files (x86)/microchip/mplab c30/bin/bin/../../lib\libm-coff.a(futil.o)
                  0x0022b4                  _fPropagateNaN
                  0x0022c6                  _fbopExit
                  0x0022ce                  _fbopReturnNaN
 .libm            0x0022d4         0x4c c:/program files (x86)/microchip/mplab c30/bin/bin/../../lib\libm-coff.a(fpack.o)
                  0x0022d4                  _fpack
 .libm            0x002320         0x36 c:/program files (x86)/microchip/mplab c30/bin/bin/../../lib\libm-coff.a(fcompare.o)
                  0x002320                  _fcompare
 .libm            0x002356         0x2a c:/program files (x86)/microchip/mplab c30/bin/bin/../../lib\libm-coff.a(funpack.o)
                  0x002356                  _funpack
 .libm            0x002380         0x44 c:/program files (x86)/microchip/mplab c30/bin/bin/../../lib\libm-coff.a(umuldi3.o)
                  0x002380                  __umuldi3
 .libm            0x0023c4         0x52 c:/program files (x86)/microchip/mplab c30/bin/bin/../../lib\libm-coff.a(dcompare.o)
                  0x0023c4                  _dcompare
 .libm            0x002416         0x4e c:/program files (x86)/microchip/mplab c30/bin/bin/../../lib\libm-coff.a(dunpack.o)
                  0x002416                  _dunpack
 .libm            0x002464         0x32 c:/program files (x86)/microchip/mplab c30/bin/bin/../../lib\libm-coff.a(dunpack2.o)
                  0x002464                  _dunpack2
                  0x002486                  _dreturnNaN
                  0x00248c                  _dunpack2exit
 .libm            0x002496         0x6e c:/program files (x86)/microchip/mplab c30/bin/bin/../../lib\libm-coff.a(floatdidf.o)
                  0x002496                  __floatdidf
 .libm            0x002504         0xfa c:/program files (x86)/microchip/mplab c30/bin/bin/../../lib\libm-coff.a(adddf3.o)
                  0x002504                  __adddf3
 .libm            0x0025fe         0x58 c:/program files (x86)/microchip/mplab c30/bin/bin/../../lib\libm-coff.a(dpack.o)
                  0x0025fe                  _dpack
 .libm            0x002656         0x24 c:/program files (x86)/microchip/mplab c30/bin/bin/../../lib\libm-coff.a(dtype.o)
                  0x002656                  _dtype
 .libm            0x00267a         0x1c c:/program files (x86)/microchip/mplab c30/bin/bin/../../lib\libm-coff.a(dpropagateNaN.o)
                  0x00267a                  _dPropagateNaN
 *(.libdsp)
 *(.lib*)

usercode
 *(usercode)

__CONFIG4
 *(__CONFIG4.sec)

__CONFIG3
 *(__CONFIG3.sec)

__CONFIG2         0x02abfc          0x2
 *(__CONFIG2.sec)
 __CONFIG2.sec    0x02abfc          0x2 Main.o

__CONFIG1         0x02abfe          0x2
 *(__CONFIG1.sec)
 __CONFIG1.sec    0x02abfe          0x2 Main.o

.comment
 *(.comment)

.debug_info
 *(.debug_info)
 *(.gnu.linkonce.wi.*)

.debug_abbrev
 *(.debug_abbrev)

.debug_line
 *(.debug_line)

.debug_frame
 *(.debug_frame)

.debug_str
 *(.debug_str)

.debug_loc
 *(.debug_loc)

.debug_macinfo
 *(.debug_macinfo)

.debug_pubnames
 *(.debug_pubnames)

.debug_ranges
 *(.debug_ranges)

.debug_aranges
 *(.debug_aranges)

.ivt              0x000004         0xfc
                  0x000004          0x4 LONG 0x22aae DEFINED (__ReservedTrap0)?<code 339> (__ReservedTrap0):<code 339> (__DefaultInterrupt)
                  0x000006          0x4 LONG 0x22ad8 DEFINED (__OscillatorFail)?<code 339> (__OscillatorFail):<code 339> (__DefaultInterrupt)
                  0x000008          0x4 LONG 0x22b02 DEFINED (__AddressError)?<code 339> (__AddressError):<code 339> (__DefaultInterrupt)
                  0x00000a          0x4 LONG 0x22b2c DEFINED (__StackError)?<code 339> (__StackError):<code 339> (__DefaultInterrupt)
                  0x00000c          0x4 LONG 0x22b56 DEFINED (__MathError)?<code 339> (__MathError):<code 339> (__DefaultInterrupt)
                  0x00000e          0x4 LONG 0x22aae DEFINED (__ReservedTrap5)?<code 339> (__ReservedTrap5):<code 339> (__DefaultInterrupt)
                  0x000010          0x4 LONG 0x22aae DEFINED (__ReservedTrap6)?<code 339> (__ReservedTrap6):<code 339> (__DefaultInterrupt)
                  0x000012          0x4 LONG 0x22aae DEFINED (__ReservedTrap7)?<code 339> (__ReservedTrap7):<code 339> (__DefaultInterrupt)
                  0x000014          0x4 LONG 0x22aae DEFINED (__INT0Interrupt)?<code 339> (__INT0Interrupt):<code 339> (__DefaultInterrupt)
                  0x000016          0x4 LONG 0x1f112 DEFINED (__IC1Interrupt)?<code 339> (__IC1Interrupt):<code 339> (__DefaultInterrupt)
                  0x000018          0x4 LONG 0x22aae DEFINED (__OC1Interrupt)?<code 339> (__OC1Interrupt):<code 339> (__DefaultInterrupt)
                  0x00001a          0x4 LONG 0x23420 DEFINED (__T1Interrupt)?<code 339> (__T1Interrupt):<code 339> (__DefaultInterrupt)
                  0x00001c          0x4 LONG 0x22aae DEFINED (__Interrupt4)?<code 339> (__Interrupt4):<code 339> (__DefaultInterrupt)
                  0x00001e          0x4 LONG 0x1f14c DEFINED (__IC2Interrupt)?<code 339> (__IC2Interrupt):<code 339> (__DefaultInterrupt)
                  0x000020          0x4 LONG 0x22aae DEFINED (__OC2Interrupt)?<code 339> (__OC2Interrupt):<code 339> (__DefaultInterrupt)
                  0x000022          0x4 LONG 0x22aae DEFINED (__T2Interrupt)?<code 339> (__T2Interrupt):<code 339> (__DefaultInterrupt)
                  0x000024          0x4 LONG 0x22aae DEFINED (__T3Interrupt)?<code 339> (__T3Interrupt):<code 339> (__DefaultInterrupt)
                  0x000026          0x4 LONG 0x22aae DEFINED (__SPI1ErrInterrupt)?<code 339> (__SPI1ErrInterrupt):<code 339> (__DefaultInterrupt)
                  0x000028          0x4 LONG 0x22aae DEFINED (__SPI1Interrupt)?<code 339> (__SPI1Interrupt):<code 339> (__DefaultInterrupt)
                  0x00002a          0x4 LONG 0x22a48 DEFINED (__U1RXInterrupt)?<code 339> (__U1RXInterrupt):<code 339> (__DefaultInterrupt)
                  0x00002c          0x4 LONG 0x22aae DEFINED (__U1TXInterrupt)?<code 339> (__U1TXInterrupt):<code 339> (__DefaultInterrupt)
                  0x00002e          0x4 LONG 0xc2a2 DEFINED (__ADC1Interrupt)?<code 339> (__ADC1Interrupt):<code 339> (__DefaultInterrupt)
                  0x000030          0x4 LONG 0x22aae DEFINED (__Interrupt14)?<code 339> (__Interrupt14):<code 339> (__DefaultInterrupt)
                  0x000032          0x4 LONG 0x22aae DEFINED (__Interrupt15)?<code 339> (__Interrupt15):<code 339> (__DefaultInterrupt)
                  0x000034          0x4 LONG 0x22aae DEFINED (__SI2C1Interrupt)?<code 339> (__SI2C1Interrupt):<code 339> (__DefaultInterrupt)
                  0x000036          0x4 LONG 0x22aae DEFINED (__MI2C1Interrupt)?<code 339> (__MI2C1Interrupt):<code 339> (__DefaultInterrupt)
                  0x000038          0x4 LONG 0x22aae DEFINED (__CompInterrupt)?<code 339> (__CompInterrupt):<code 339> (__DefaultInterrupt)
                  0x00003a          0x4 LONG 0x22aae DEFINED (__CNInterrupt)?<code 339> (__CNInterrupt):<code 339> (__DefaultInterrupt)
                  0x00003c          0x4 LONG 0x23cf6 DEFINED (__INT1Interrupt)?<code 339> (__INT1Interrupt):<code 339> (__DefaultInterrupt)
                  0x00003e          0x4 LONG 0x22aae DEFINED (__Interrupt21)?<code 339> (__Interrupt21):<code 339> (__DefaultInterrupt)
                  0x000040          0x4 LONG 0x22aae DEFINED (__IC7Interrupt)?<code 339> (__IC7Interrupt):<code 339> (__DefaultInterrupt)
                  0x000042          0x4 LONG 0x22aae DEFINED (__IC8Interrupt)?<code 339> (__IC8Interrupt):<code 339> (__DefaultInterrupt)
                  0x000044          0x4 LONG 0x22aae DEFINED (__Interrupt24)?<code 339> (__Interrupt24):<code 339> (__DefaultInterrupt)
                  0x000046          0x4 LONG 0x22aae DEFINED (__OC3Interrupt)?<code 339> (__OC3Interrupt):<code 339> (__DefaultInterrupt)
                  0x000048          0x4 LONG 0x22aae DEFINED (__OC4Interrupt)?<code 339> (__OC4Interrupt):<code 339> (__DefaultInterrupt)
                  0x00004a          0x4 LONG 0x22aae DEFINED (__T4Interrupt)?<code 339> (__T4Interrupt):<code 339> (__DefaultInterrupt)
                  0x00004c          0x4 LONG 0x2319c DEFINED (__T5Interrupt)?<code 339> (__T5Interrupt):<code 339> (__DefaultInterrupt)
                  0x00004e          0x4 LONG 0x22b80 DEFINED (__INT2Interrupt)?<code 339> (__INT2Interrupt):<code 339> (__DefaultInterrupt)
                  0x000050          0x4 LONG 0x22a68 DEFINED (__U2RXInterrupt)?<code 339> (__U2RXInterrupt):<code 339> (__DefaultInterrupt)
                  0x000052          0x4 LONG 0x22aae DEFINED (__U2TXInterrupt)?<code 339> (__U2TXInterrupt):<code 339> (__DefaultInterrupt)
                  0x000054          0x4 LONG 0x22aae DEFINED (__SPI2ErrInterrupt)?<code 339> (__SPI2ErrInterrupt):<code 339> (__DefaultInterrupt)
                  0x000056          0x4 LONG 0x22aae DEFINED (__SPI2Interrupt)?<code 339> (__SPI2Interrupt):<code 339> (__DefaultInterrupt)
                  0x000058          0x4 LONG 0x22aae DEFINED (__Interrupt34)?<code 339> (__Interrupt34):<code 339> (__DefaultInterrupt)
                  0x00005a          0x4 LONG 0x22aae DEFINED (__Interrupt35)?<code 339> (__Interrupt35):<code 339> (__DefaultInterrupt)
                  0x00005c          0x4 LONG 0x22aae DEFINED (__Interrupt36)?<code 339> (__Interrupt36):<code 339> (__DefaultInterrupt)
                  0x00005e          0x4 LONG 0x1f166 DEFINED (__IC3Interrupt)?<code 339> (__IC3Interrupt):<code 339> (__DefaultInterrupt)
                  0x000060          0x4 LONG 0x1f1a0 DEFINED (__IC4Interrupt)?<code 339> (__IC4Interrupt):<code 339> (__DefaultInterrupt)
                  0x000062          0x4 LONG 0x1f1ba DEFINED (__IC5Interrupt)?<code 339> (__IC5Interrupt):<code 339> (__DefaultInterrupt)
                  0x000064          0x4 LONG 0x1f1f4 DEFINED (__IC6Interrupt)?<code 339> (__IC6Interrupt):<code 339> (__DefaultInterrupt)
                  0x000066          0x4 LONG 0x22aae DEFINED (__OC5Interrupt)?<code 339> (__OC5Interrupt):<code 339> (__DefaultInterrupt)
                  0x000068          0x4 LONG 0x22aae DEFINED (__OC6Interrupt)?<code 339> (__OC6Interrupt):<code 339> (__DefaultInterrupt)
                  0x00006a          0x4 LONG 0x22aae DEFINED (__OC7Interrupt)?<code 339> (__OC7Interrupt):<code 339> (__DefaultInterrupt)
                  0x00006c          0x4 LONG 0x22aae DEFINED (__OC8Interrupt)?<code 339> (__OC8Interrupt):<code 339> (__DefaultInterrupt)
                  0x00006e          0x4 LONG 0x22aae DEFINED (__PMPInterrupt)?<code 339> (__PMPInterrupt):<code 339> (__DefaultInterrupt)
                  0x000070          0x4 LONG 0x22aae DEFINED (__Interrupt46)?<code 339> (__Interrupt46):<code 339> (__DefaultInterrupt)
                  0x000072          0x4 LONG 0x22aae DEFINED (__Interrupt47)?<code 339> (__Interrupt47):<code 339> (__DefaultInterrupt)
                  0x000074          0x4 LONG 0x22aae DEFINED (__Interrupt48)?<code 339> (__Interrupt48):<code 339> (__DefaultInterrupt)
                  0x000076          0x4 LONG 0x22aae DEFINED (__SI2C2Interrupt)?<code 339> (__SI2C2Interrupt):<code 339> (__DefaultInterrupt)
                  0x000078          0x4 LONG 0x22aae DEFINED (__MI2C2Interrupt)?<code 339> (__MI2C2Interrupt):<code 339> (__DefaultInterrupt)
                  0x00007a          0x4 LONG 0x22aae DEFINED (__Interrupt51)?<code 339> (__Interrupt51):<code 339> (__DefaultInterrupt)
                  0x00007c          0x4 LONG 0x22aae DEFINED (__Interrupt52)?<code 339> (__Interrupt52):<code 339> (__DefaultInterrupt)
                  0x00007e          0x4 LONG 0x22ba8 DEFINED (__INT3Interrupt)?<code 339> (__INT3Interrupt):<code 339> (__DefaultInterrupt)
                  0x000080          0x4 LONG 0x22bd0 DEFINED (__INT4Interrupt)?<code 339> (__INT4Interrupt):<code 339> (__DefaultInterrupt)
                  0x000082          0x4 LONG 0x22aae DEFINED (__Interrupt55)?<code 339> (__Interrupt55):<code 339> (__DefaultInterrupt)
                  0x000084          0x4 LONG 0x22aae DEFINED (__Interrupt56)?<code 339> (__Interrupt56):<code 339> (__DefaultInterrupt)
                  0x000086          0x4 LONG 0x22aae DEFINED (__Interrupt57)?<code 339> (__Interrupt57):<code 339> (__DefaultInterrupt)
                  0x000088          0x4 LONG 0x22aae DEFINED (__Interrupt58)?<code 339> (__Interrupt58):<code 339> (__DefaultInterrupt)
                  0x00008a          0x4 LONG 0x22aae DEFINED (__Interrupt59)?<code 339> (__Interrupt59):<code 339> (__DefaultInterrupt)
                  0x00008c          0x4 LONG 0x22aae DEFINED (__Interrupt60)?<code 339> (__Interrupt60):<code 339> (__DefaultInterrupt)
                  0x00008e          0x4 LONG 0x22aae DEFINED (__Interrupt61)?<code 339> (__Interrupt61):<code 339> (__DefaultInterrupt)
                  0x000090          0x4 LONG 0x22aae DEFINED (__RTCCInterrupt)?<code 339> (__RTCCInterrupt):<code 339> (__DefaultInterrupt)
                  0x000092          0x4 LONG 0x22aae DEFINED (__Interrupt63)?<code 339> (__Interrupt63):<code 339> (__DefaultInterrupt)
                  0x000094          0x4 LONG 0x22aae DEFINED (__Interrupt64)?<code 339> (__Interrupt64):<code 339> (__DefaultInterrupt)
                  0x000096          0x4 LONG 0x22aae DEFINED (__U1ErrInterrupt)?<code 339> (__U1ErrInterrupt):<code 339> (__DefaultInterrupt)
                  0x000098          0x4 LONG 0x22aae DEFINED (__U2ErrInterrupt)?<code 339> (__U2ErrInterrupt):<code 339> (__DefaultInterrupt)
                  0x00009a          0x4 LONG 0x22aae DEFINED (__CRCInterrupt)?<code 339> (__CRCInterrupt):<code 339> (__DefaultInterrupt)
                  0x00009c          0x4 LONG 0x22aae DEFINED (__Interrupt68)?<code 339> (__Interrupt68):<code 339> (__DefaultInterrupt)
                  0x00009e          0x4 LONG 0x22aae DEFINED (__Interrupt69)?<code 339> (__Interrupt69):<code 339> (__DefaultInterrupt)
                  0x0000a0          0x4 LONG 0x22aae DEFINED (__Interrupt70)?<code 339> (__Interrupt70):<code 339> (__DefaultInterrupt)
                  0x0000a2          0x4 LONG 0x22aae DEFINED (__Interrupt71)?<code 339> (__Interrupt71):<code 339> (__DefaultInterrupt)
                  0x0000a4          0x4 LONG 0x22aae DEFINED (__LVDInterrupt)?<code 339> (__LVDInterrupt):<code 339> (__DefaultInterrupt)
                  0x0000a6          0x4 LONG 0x22aae DEFINED (__Interrupt73)?<code 339> (__Interrupt73):<code 339> (__DefaultInterrupt)
                  0x0000a8          0x4 LONG 0x22aae DEFINED (__Interrupt74)?<code 339> (__Interrupt74):<code 339> (__DefaultInterrupt)
                  0x0000aa          0x4 LONG 0x22aae DEFINED (__Interrupt75)?<code 339> (__Interrupt75):<code 339> (__DefaultInterrupt)
                  0x0000ac          0x4 LONG 0x22aae DEFINED (__Interrupt76)?<code 339> (__Interrupt76):<code 339> (__DefaultInterrupt)
                  0x0000ae          0x4 LONG 0x22aae DEFINED (__CTMUInterrupt)?<code 339> (__CTMUInterrupt):<code 339> (__DefaultInterrupt)
                  0x0000b0          0x4 LONG 0x22aae DEFINED (__Interrupt78)?<code 339> (__Interrupt78):<code 339> (__DefaultInterrupt)
                  0x0000b2          0x4 LONG 0x22aae DEFINED (__Interrupt79)?<code 339> (__Interrupt79):<code 339> (__DefaultInterrupt)
                  0x0000b4          0x4 LONG 0x22aae DEFINED (__Interrupt80)?<code 339> (__Interrupt80):<code 339> (__DefaultInterrupt)
                  0x0000b6          0x4 LONG 0x22aae DEFINED (__U3ErrInterrupt)?<code 339> (__U3ErrInterrupt):<code 339> (__DefaultInterrupt)
                  0x0000b8          0x4 LONG 0x22a88 DEFINED (__U3RXInterrupt)?<code 339> (__U3RXInterrupt):<code 339> (__DefaultInterrupt)
                  0x0000ba          0x4 LONG 0x22aae DEFINED (__U3TXInterrupt)?<code 339> (__U3TXInterrupt):<code 339> (__DefaultInterrupt)
                  0x0000bc          0x4 LONG 0x22aae DEFINED (__SI2C3Interrupt)?<code 339> (__SI2C3Interrupt):<code 339> (__DefaultInterrupt)
                  0x0000be          0x4 LONG 0x22aae DEFINED (__MI2C3Interrupt)?<code 339> (__MI2C3Interrupt):<code 339> (__DefaultInterrupt)
                  0x0000c0          0x4 LONG 0x22aae DEFINED (__USB1Interrupt)?<code 339> (__USB1Interrupt):<code 339> (__DefaultInterrupt)
                  0x0000c2          0x4 LONG 0x22aae DEFINED (__U4ErrInterrupt)?<code 339> (__U4ErrInterrupt):<code 339> (__DefaultInterrupt)
                  0x0000c4          0x4 LONG 0x22aa8 DEFINED (__U4RXInterrupt)?<code 339> (__U4RXInterrupt):<code 339> (__DefaultInterrupt)
                  0x0000c6          0x4 LONG 0x22aae DEFINED (__U4TXInterrupt)?<code 339> (__U4TXInterrupt):<code 339> (__DefaultInterrupt)
                  0x0000c8          0x4 LONG 0x22aae DEFINED (__SPI3ErrInterrupt)?<code 339> (__SPI3ErrInterrupt):<code 339> (__DefaultInterrupt)
                  0x0000ca          0x4 LONG 0x22aae DEFINED (__SPI3Interrupt)?<code 339> (__SPI3Interrupt):<code 339> (__DefaultInterrupt)
                  0x0000cc          0x4 LONG 0x22aae DEFINED (__OC9Interrupt)?<code 339> (__OC9Interrupt):<code 339> (__DefaultInterrupt)
                  0x0000ce          0x4 LONG 0x22aae DEFINED (__IC9Interrupt)?<code 339> (__IC9Interrupt):<code 339> (__DefaultInterrupt)
                  0x0000d0          0x4 LONG 0x22aae DEFINED (__Interrupt94)?<code 339> (__Interrupt94):<code 339> (__DefaultInterrupt)
                  0x0000d2          0x4 LONG 0x22aae DEFINED (__Interrupt95)?<code 339> (__Interrupt95):<code 339> (__DefaultInterrupt)
                  0x0000d4          0x4 LONG 0x22aae DEFINED (__Interrupt96)?<code 339> (__Interrupt96):<code 339> (__DefaultInterrupt)
                  0x0000d6          0x4 LONG 0x22aae DEFINED (__Interrupt97)?<code 339> (__Interrupt97):<code 339> (__DefaultInterrupt)
                  0x0000d8          0x4 LONG 0x22aae DEFINED (__Interrupt98)?<code 339> (__Interrupt98):<code 339> (__DefaultInterrupt)
                  0x0000da          0x4 LONG 0x22aae DEFINED (__Interrupt99)?<code 339> (__Interrupt99):<code 339> (__DefaultInterrupt)
                  0x0000dc          0x4 LONG 0x22aae DEFINED (__Interrupt100)?<code 339> (__Interrupt100):<code 339> (__DefaultInterrupt)
                  0x0000de          0x4 LONG 0x22aae DEFINED (__Interrupt101)?<code 339> (__Interrupt101):<code 339> (__DefaultInterrupt)
                  0x0000e0          0x4 LONG 0x22aae DEFINED (__Interrupt102)?<code 339> (__Interrupt102):<code 339> (__DefaultInterrupt)
                  0x0000e2          0x4 LONG 0x22aae DEFINED (__Interrupt103)?<code 339> (__Interrupt103):<code 339> (__DefaultInterrupt)
                  0x0000e4          0x4 LONG 0x22aae DEFINED (__Interrupt104)?<code 339> (__Interrupt104):<code 339> (__DefaultInterrupt)
                  0x0000e6          0x4 LONG 0x22aae DEFINED (__Interrupt105)?<code 339> (__Interrupt105):<code 339> (__DefaultInterrupt)
                  0x0000e8          0x4 LONG 0x22aae DEFINED (__Interrupt106)?<code 339> (__Interrupt106):<code 339> (__DefaultInterrupt)
                  0x0000ea          0x4 LONG 0x22aae DEFINED (__Interrupt107)?<code 339> (__Interrupt107):<code 339> (__DefaultInterrupt)
                  0x0000ec          0x4 LONG 0x22aae DEFINED (__Interrupt108)?<code 339> (__Interrupt108):<code 339> (__DefaultInterrupt)
                  0x0000ee          0x4 LONG 0x22aae DEFINED (__Interrupt109)?<code 339> (__Interrupt109):<code 339> (__DefaultInterrupt)
                  0x0000f0          0x4 LONG 0x22aae DEFINED (__Interrupt110)?<code 339> (__Interrupt110):<code 339> (__DefaultInterrupt)
                  0x0000f2          0x4 LONG 0x22aae DEFINED (__Interrupt111)?<code 339> (__Interrupt111):<code 339> (__DefaultInterrupt)
                  0x0000f4          0x4 LONG 0x22aae DEFINED (__Interrupt112)?<code 339> (__Interrupt112):<code 339> (__DefaultInterrupt)
                  0x0000f6          0x4 LONG 0x22aae DEFINED (__Interrupt113)?<code 339> (__Interrupt113):<code 339> (__DefaultInterrupt)
                  0x0000f8          0x4 LONG 0x22aae DEFINED (__Interrupt114)?<code 339> (__Interrupt114):<code 339> (__DefaultInterrupt)
                  0x0000fa          0x4 LONG 0x22aae DEFINED (__Interrupt115)?<code 339> (__Interrupt115):<code 339> (__DefaultInterrupt)
                  0x0000fc          0x4 LONG 0x22aae DEFINED (__Interrupt116)?<code 339> (__Interrupt116):<code 339> (__DefaultInterrupt)
                  0x0000fe          0x4 LONG 0x22aae DEFINED (__Interrupt117)?<code 339> (__Interrupt117):<code 339> (__DefaultInterrupt)

.aivt             0x000104         0xfc
                  0x000104          0x4 LONG 0x22aae DEFINED (__AltReservedTrap0)?<code 339> (__AltReservedTrap0):DEFINED (__ReservedTrap0)?<code 339> (__ReservedTrap0):<code 339> (__DefaultInterrupt)
                  0x000106          0x4 LONG 0x22ad8 DEFINED (__AltOscillatorFail)?<code 339> (__AltOscillatorFail):DEFINED (__OscillatorFail)?<code 339> (__OscillatorFail):<code 339> (__DefaultInterrupt)
                  0x000108          0x4 LONG 0x22b02 DEFINED (__AltAddressError)?<code 339> (__AltAddressError):DEFINED (__AddressError)?<code 339> (__AddressError):<code 339> (__DefaultInterrupt)
                  0x00010a          0x4 LONG 0x22b2c DEFINED (__AltStackError)?<code 339> (__AltStackError):DEFINED (__StackError)?<code 339> (__StackError):<code 339> (__DefaultInterrupt)
                  0x00010c          0x4 LONG 0x22b56 DEFINED (__AltMathError)?<code 339> (__AltMathError):DEFINED (__MathError)?<code 339> (__MathError):<code 339> (__DefaultInterrupt)
                  0x00010e          0x4 LONG 0x22aae DEFINED (__AltReservedTrap5)?<code 339> (__AltReservedTrap5):DEFINED (__ReservedTrap5)?<code 339> (__ReservedTrap5):<code 339> (__DefaultInterrupt)
                  0x000110          0x4 LONG 0x22aae DEFINED (__AltReservedTrap6)?<code 339> (__AltReservedTrap6):DEFINED (__ReservedTrap6)?<code 339> (__ReservedTrap6):<code 339> (__DefaultInterrupt)
                  0x000112          0x4 LONG 0x22aae DEFINED (__AltReservedTrap7)?<code 339> (__AltReservedTrap7):DEFINED (__ReservedTrap7)?<code 339> (__ReservedTrap7):<code 339> (__DefaultInterrupt)
                  0x000114          0x4 LONG 0x22aae DEFINED (__AltINT0Interrupt)?<code 339> (__AltINT0Interrupt):DEFINED (__INT0Interrupt)?<code 339> (__INT0Interrupt):<code 339> (__DefaultInterrupt)
                  0x000116          0x4 LONG 0x1f112 DEFINED (__AltIC1Interrupt)?<code 339> (__AltIC1Interrupt):DEFINED (__IC1Interrupt)?<code 339> (__IC1Interrupt):<code 339> (__DefaultInterrupt)
                  0x000118          0x4 LONG 0x22aae DEFINED (__AltOC1Interrupt)?<code 339> (__AltOC1Interrupt):DEFINED (__OC1Interrupt)?<code 339> (__OC1Interrupt):<code 339> (__DefaultInterrupt)
                  0x00011a          0x4 LONG 0x23420 DEFINED (__AltT1Interrupt)?<code 339> (__AltT1Interrupt):DEFINED (__T1Interrupt)?<code 339> (__T1Interrupt):<code 339> (__DefaultInterrupt)
                  0x00011c          0x4 LONG 0x22aae DEFINED (__AltInterrupt4)?<code 339> (__AltInterrupt4):DEFINED (__Interrupt4)?<code 339> (__Interrupt4):<code 339> (__DefaultInterrupt)
                  0x00011e          0x4 LONG 0x1f14c DEFINED (__AltIC2Interrupt)?<code 339> (__AltIC2Interrupt):DEFINED (__IC2Interrupt)?<code 339> (__IC2Interrupt):<code 339> (__DefaultInterrupt)
                  0x000120          0x4 LONG 0x22aae DEFINED (__AltOC2Interrupt)?<code 339> (__AltOC2Interrupt):DEFINED (__OC2Interrupt)?<code 339> (__OC2Interrupt):<code 339> (__DefaultInterrupt)
                  0x000122          0x4 LONG 0x22aae DEFINED (__AltT2Interrupt)?<code 339> (__AltT2Interrupt):DEFINED (__T2Interrupt)?<code 339> (__T2Interrupt):<code 339> (__DefaultInterrupt)
                  0x000124          0x4 LONG 0x22aae DEFINED (__AltT3Interrupt)?<code 339> (__AltT3Interrupt):DEFINED (__T3Interrupt)?<code 339> (__T3Interrupt):<code 339> (__DefaultInterrupt)
                  0x000126          0x4 LONG 0x22aae DEFINED (__AltSPI1ErrInterrupt)?<code 339> (__AltSPI1ErrInterrupt):DEFINED (__SPI1ErrInterrupt)?<code 339> (__SPI1ErrInterrupt):<code 339> (__DefaultInterrupt)
                  0x000128          0x4 LONG 0x22aae DEFINED (__AltSPI1Interrupt)?<code 339> (__AltSPI1Interrupt):DEFINED (__SPI1Interrupt)?<code 339> (__SPI1Interrupt):<code 339> (__DefaultInterrupt)
                  0x00012a          0x4 LONG 0x22a48 DEFINED (__AltU1RXInterrupt)?<code 339> (__AltU1RXInterrupt):DEFINED (__U1RXInterrupt)?<code 339> (__U1RXInterrupt):<code 339> (__DefaultInterrupt)
                  0x00012c          0x4 LONG 0x22aae DEFINED (__AltU1TXInterrupt)?<code 339> (__AltU1TXInterrupt):DEFINED (__U1TXInterrupt)?<code 339> (__U1TXInterrupt):<code 339> (__DefaultInterrupt)
                  0x00012e          0x4 LONG 0xc2a2 DEFINED (__AltADC1Interrupt)?<code 339> (__AltADC1Interrupt):DEFINED (__ADC1Interrupt)?<code 339> (__ADC1Interrupt):<code 339> (__DefaultInterrupt)
                  0x000130          0x4 LONG 0x22aae DEFINED (__AltInterrupt14)?<code 339> (__AltInterrupt14):DEFINED (__Interrupt14)?<code 339> (__Interrupt14):<code 339> (__DefaultInterrupt)
                  0x000132          0x4 LONG 0x22aae DEFINED (__AltInterrupt15)?<code 339> (__AltInterrupt15):DEFINED (__Interrupt15)?<code 339> (__Interrupt15):<code 339> (__DefaultInterrupt)
                  0x000134          0x4 LONG 0x22aae DEFINED (__AltSI2C1Interrupt)?<code 339> (__AltSI2C1Interrupt):DEFINED (__SI2C1Interrupt)?<code 339> (__SI2C1Interrupt):<code 339> (__DefaultInterrupt)
                  0x000136          0x4 LONG 0x22aae DEFINED (__AltMI2C1Interrupt)?<code 339> (__AltMI2C1Interrupt):DEFINED (__MI2C1Interrupt)?<code 339> (__MI2C1Interrupt):<code 339> (__DefaultInterrupt)
                  0x000138          0x4 LONG 0x22aae DEFINED (__AltCompInterrupt)?<code 339> (__AltCompInterrupt):DEFINED (__CompInterrupt)?<code 339> (__CompInterrupt):<code 339> (__DefaultInterrupt)
                  0x00013a          0x4 LONG 0x22aae DEFINED (__AltCNInterrupt)?<code 339> (__AltCNInterrupt):DEFINED (__CNInterrupt)?<code 339> (__CNInterrupt):<code 339> (__DefaultInterrupt)
                  0x00013c          0x4 LONG 0x23cf6 DEFINED (__AltINT1Interrupt)?<code 339> (__AltINT1Interrupt):DEFINED (__INT1Interrupt)?<code 339> (__INT1Interrupt):<code 339> (__DefaultInterrupt)
                  0x00013e          0x4 LONG 0x22aae DEFINED (__AltInterrupt21)?<code 339> (__AltInterrupt21):DEFINED (__Interrupt21)?<code 339> (__Interrupt21):<code 339> (__DefaultInterrupt)
                  0x000140          0x4 LONG 0x22aae DEFINED (__AltIC7Interrupt)?<code 339> (__AltIC7Interrupt):DEFINED (__IC7Interrupt)?<code 339> (__IC7Interrupt):<code 339> (__DefaultInterrupt)
                  0x000142          0x4 LONG 0x22aae DEFINED (__AltIC8Interrupt)?<code 339> (__AltIC8Interrupt):DEFINED (__IC8Interrupt)?<code 339> (__IC8Interrupt):<code 339> (__DefaultInterrupt)
                  0x000144          0x4 LONG 0x22aae DEFINED (__AltInterrupt24)?<code 339> (__AltInterrupt24):DEFINED (__Interrupt24)?<code 339> (__Interrupt24):<code 339> (__DefaultInterrupt)
                  0x000146          0x4 LONG 0x22aae DEFINED (__AltOC3Interrupt)?<code 339> (__AltOC3Interrupt):DEFINED (__OC3Interrupt)?<code 339> (__OC3Interrupt):<code 339> (__DefaultInterrupt)
                  0x000148          0x4 LONG 0x22aae DEFINED (__AltOC4Interrupt)?<code 339> (__AltOC4Interrupt):DEFINED (__OC4Interrupt)?<code 339> (__OC4Interrupt):<code 339> (__DefaultInterrupt)
                  0x00014a          0x4 LONG 0x22aae DEFINED (__AltT4Interrupt)?<code 339> (__AltT4Interrupt):DEFINED (__T4Interrupt)?<code 339> (__T4Interrupt):<code 339> (__DefaultInterrupt)
                  0x00014c          0x4 LONG 0x2319c DEFINED (__AltT5Interrupt)?<code 339> (__AltT5Interrupt):DEFINED (__T5Interrupt)?<code 339> (__T5Interrupt):<code 339> (__DefaultInterrupt)
                  0x00014e          0x4 LONG 0x22b80 DEFINED (__AltINT2Interrupt)?<code 339> (__AltINT2Interrupt):DEFINED (__INT2Interrupt)?<code 339> (__INT2Interrupt):<code 339> (__DefaultInterrupt)
                  0x000150          0x4 LONG 0x22a68 DEFINED (__AltU2RXInterrupt)?<code 339> (__AltU2RXInterrupt):DEFINED (__U2RXInterrupt)?<code 339> (__U2RXInterrupt):<code 339> (__DefaultInterrupt)
                  0x000152          0x4 LONG 0x22aae DEFINED (__AltU2TXInterrupt)?<code 339> (__AltU2TXInterrupt):DEFINED (__U2TXInterrupt)?<code 339> (__U2TXInterrupt):<code 339> (__DefaultInterrupt)
                  0x000154          0x4 LONG 0x22aae DEFINED (__AltSPI2ErrInterrupt)?<code 339> (__AltSPI2ErrInterrupt):DEFINED (__SPI2ErrInterrupt)?<code 339> (__SPI2ErrInterrupt):<code 339> (__DefaultInterrupt)
                  0x000156          0x4 LONG 0x22aae DEFINED (__AltSPI2Interrupt)?<code 339> (__AltSPI2Interrupt):DEFINED (__SPI2Interrupt)?<code 339> (__SPI2Interrupt):<code 339> (__DefaultInterrupt)
                  0x000158          0x4 LONG 0x22aae DEFINED (__AltInterrupt34)?<code 339> (__AltInterrupt34):DEFINED (__Interrupt34)?<code 339> (__Interrupt34):<code 339> (__DefaultInterrupt)
                  0x00015a          0x4 LONG 0x22aae DEFINED (__AltInterrupt35)?<code 339> (__AltInterrupt35):DEFINED (__Interrupt35)?<code 339> (__Interrupt35):<code 339> (__DefaultInterrupt)
                  0x00015c          0x4 LONG 0x22aae DEFINED (__AltInterrupt36)?<code 339> (__AltInterrupt36):DEFINED (__Interrupt36)?<code 339> (__Interrupt36):<code 339> (__DefaultInterrupt)
                  0x00015e          0x4 LONG 0x1f166 DEFINED (__AltIC3Interrupt)?<code 339> (__AltIC3Interrupt):DEFINED (__IC3Interrupt)?<code 339> (__IC3Interrupt):<code 339> (__DefaultInterrupt)
                  0x000160          0x4 LONG 0x1f1a0 DEFINED (__AltIC4Interrupt)?<code 339> (__AltIC4Interrupt):DEFINED (__IC4Interrupt)?<code 339> (__IC4Interrupt):<code 339> (__DefaultInterrupt)
                  0x000162          0x4 LONG 0x1f1ba DEFINED (__AltIC5Interrupt)?<code 339> (__AltIC5Interrupt):DEFINED (__IC5Interrupt)?<code 339> (__IC5Interrupt):<code 339> (__DefaultInterrupt)
                  0x000164          0x4 LONG 0x1f1f4 DEFINED (__AltIC6Interrupt)?<code 339> (__AltIC6Interrupt):DEFINED (__IC6Interrupt)?<code 339> (__IC6Interrupt):<code 339> (__DefaultInterrupt)
                  0x000166          0x4 LONG 0x22aae DEFINED (__AltOC5Interrupt)?<code 339> (__AltOC5Interrupt):DEFINED (__OC5Interrupt)?<code 339> (__OC5Interrupt):<code 339> (__DefaultInterrupt)
                  0x000168          0x4 LONG 0x22aae DEFINED (__AltOC6Interrupt)?<code 339> (__AltOC6Interrupt):DEFINED (__OC6Interrupt)?<code 339> (__OC6Interrupt):<code 339> (__DefaultInterrupt)
                  0x00016a          0x4 LONG 0x22aae DEFINED (__AltOC7Interrupt)?<code 339> (__AltOC7Interrupt):DEFINED (__OC7Interrupt)?<code 339> (__OC7Interrupt):<code 339> (__DefaultInterrupt)
                  0x00016c          0x4 LONG 0x22aae DEFINED (__AltOC8Interrupt)?<code 339> (__AltOC8Interrupt):DEFINED (__OC8Interrupt)?<code 339> (__OC8Interrupt):<code 339> (__DefaultInterrupt)
                  0x00016e          0x4 LONG 0x22aae DEFINED (__AltPMPInterrupt)?<code 339> (__AltPMPInterrupt):DEFINED (__PMPInterrupt)?<code 339> (__PMPInterrupt):<code 339> (__DefaultInterrupt)
                  0x000170          0x4 LONG 0x22aae DEFINED (__AltInterrupt46)?<code 339> (__AltInterrupt46):DEFINED (__Interrupt46)?<code 339> (__Interrupt46):<code 339> (__DefaultInterrupt)
                  0x000172          0x4 LONG 0x22aae DEFINED (__AltInterrupt47)?<code 339> (__AltInterrupt47):DEFINED (__Interrupt47)?<code 339> (__Interrupt47):<code 339> (__DefaultInterrupt)
                  0x000174          0x4 LONG 0x22aae DEFINED (__AltInterrupt48)?<code 339> (__AltInterrupt48):DEFINED (__Interrupt48)?<code 339> (__Interrupt48):<code 339> (__DefaultInterrupt)
                  0x000176          0x4 LONG 0x22aae DEFINED (__AltSI2C2Interrupt)?<code 339> (__AltSI2C2Interrupt):DEFINED (__SI2C2Interrupt)?<code 339> (__SI2C2Interrupt):<code 339> (__DefaultInterrupt)
                  0x000178          0x4 LONG 0x22aae DEFINED (__AltMI2C2Interrupt)?<code 339> (__AltMI2C2Interrupt):DEFINED (__MI2C2Interrupt)?<code 339> (__MI2C2Interrupt):<code 339> (__DefaultInterrupt)
                  0x00017a          0x4 LONG 0x22aae DEFINED (__AltInterrupt51)?<code 339> (__AltInterrupt51):DEFINED (__Interrupt51)?<code 339> (__Interrupt51):<code 339> (__DefaultInterrupt)
                  0x00017c          0x4 LONG 0x22aae DEFINED (__AltInterrupt52)?<code 339> (__AltInterrupt52):DEFINED (__Interrupt52)?<code 339> (__Interrupt52):<code 339> (__DefaultInterrupt)
                  0x00017e          0x4 LONG 0x22ba8 DEFINED (__AltINT3Interrupt)?<code 339> (__AltINT3Interrupt):DEFINED (__INT3Interrupt)?<code 339> (__INT3Interrupt):<code 339> (__DefaultInterrupt)
                  0x000180          0x4 LONG 0x22bd0 DEFINED (__AltINT4Interrupt)?<code 339> (__AltINT4Interrupt):DEFINED (__INT4Interrupt)?<code 339> (__INT4Interrupt):<code 339> (__DefaultInterrupt)
                  0x000182          0x4 LONG 0x22aae DEFINED (__AltInterrupt55)?<code 339> (__AltInterrupt55):DEFINED (__Interrupt55)?<code 339> (__Interrupt55):<code 339> (__DefaultInterrupt)
                  0x000184          0x4 LONG 0x22aae DEFINED (__AltInterrupt56)?<code 339> (__AltInterrupt56):DEFINED (__Interrupt56)?<code 339> (__Interrupt56):<code 339> (__DefaultInterrupt)
                  0x000186          0x4 LONG 0x22aae DEFINED (__AltInterrupt57)?<code 339> (__AltInterrupt57):DEFINED (__Interrupt57)?<code 339> (__Interrupt57):<code 339> (__DefaultInterrupt)
                  0x000188          0x4 LONG 0x22aae DEFINED (__AltInterrupt58)?<code 339> (__AltInterrupt58):DEFINED (__Interrupt58)?<code 339> (__Interrupt58):<code 339> (__DefaultInterrupt)
                  0x00018a          0x4 LONG 0x22aae DEFINED (__AltInterrupt59)?<code 339> (__AltInterrupt59):DEFINED (__Interrupt59)?<code 339> (__Interrupt59):<code 339> (__DefaultInterrupt)
                  0x00018c          0x4 LONG 0x22aae DEFINED (__AltInterrupt60)?<code 339> (__AltInterrupt60):DEFINED (__Interrupt60)?<code 339> (__Interrupt60):<code 339> (__DefaultInterrupt)
                  0x00018e          0x4 LONG 0x22aae DEFINED (__AltInterrupt61)?<code 339> (__AltInterrupt61):DEFINED (__Interrupt61)?<code 339> (__Interrupt61):<code 339> (__DefaultInterrupt)
                  0x000190          0x4 LONG 0x22aae DEFINED (__AltRTCCInterrupt)?<code 339> (__AltRTCCInterrupt):DEFINED (__RTCCInterrupt)?<code 339> (__RTCCInterrupt):<code 339> (__DefaultInterrupt)
                  0x000192          0x4 LONG 0x22aae DEFINED (__AltInterrupt63)?<code 339> (__AltInterrupt63):DEFINED (__Interrupt63)?<code 339> (__Interrupt63):<code 339> (__DefaultInterrupt)
                  0x000194          0x4 LONG 0x22aae DEFINED (__AltInterrupt64)?<code 339> (__AltInterrupt64):DEFINED (__Interrupt64)?<code 339> (__Interrupt64):<code 339> (__DefaultInterrupt)
                  0x000196          0x4 LONG 0x22aae DEFINED (__AltU1ErrInterrupt)?<code 339> (__AltU1ErrInterrupt):DEFINED (__U1ErrInterrupt)?<code 339> (__U1ErrInterrupt):<code 339> (__DefaultInterrupt)
                  0x000198          0x4 LONG 0x22aae DEFINED (__AltU2ErrInterrupt)?<code 339> (__AltU2ErrInterrupt):DEFINED (__U2ErrInterrupt)?<code 339> (__U2ErrInterrupt):<code 339> (__DefaultInterrupt)
                  0x00019a          0x4 LONG 0x22aae DEFINED (__AltCRCInterrupt)?<code 339> (__AltCRCInterrupt):DEFINED (__CRCInterrupt)?<code 339> (__CRCInterrupt):<code 339> (__DefaultInterrupt)
                  0x00019c          0x4 LONG 0x22aae DEFINED (__AltInterrupt68)?<code 339> (__AltInterrupt68):DEFINED (__Interrupt68)?<code 339> (__Interrupt68):<code 339> (__DefaultInterrupt)
                  0x00019e          0x4 LONG 0x22aae DEFINED (__AltInterrupt69)?<code 339> (__AltInterrupt69):DEFINED (__Interrupt69)?<code 339> (__Interrupt69):<code 339> (__DefaultInterrupt)
                  0x0001a0          0x4 LONG 0x22aae DEFINED (__AltInterrupt70)?<code 339> (__AltInterrupt70):DEFINED (__Interrupt70)?<code 339> (__Interrupt70):<code 339> (__DefaultInterrupt)
                  0x0001a2          0x4 LONG 0x22aae DEFINED (__AltInterrupt71)?<code 339> (__AltInterrupt71):DEFINED (__Interrupt71)?<code 339> (__Interrupt71):<code 339> (__DefaultInterrupt)
                  0x0001a4          0x4 LONG 0x22aae DEFINED (__AltLVDInterrupt)?<code 339> (__AltLVDInterrupt):DEFINED (__LVDInterrupt)?<code 339> (__LVDInterrupt):<code 339> (__DefaultInterrupt)
                  0x0001a6          0x4 LONG 0x22aae DEFINED (__AltInterrupt73)?<code 339> (__AltInterrupt73):DEFINED (__Interrupt73)?<code 339> (__Interrupt73):<code 339> (__DefaultInterrupt)
                  0x0001a8          0x4 LONG 0x22aae DEFINED (__AltInterrupt74)?<code 339> (__AltInterrupt74):DEFINED (__Interrupt74)?<code 339> (__Interrupt74):<code 339> (__DefaultInterrupt)
                  0x0001aa          0x4 LONG 0x22aae DEFINED (__AltInterrupt75)?<code 339> (__AltInterrupt75):DEFINED (__Interrupt75)?<code 339> (__Interrupt75):<code 339> (__DefaultInterrupt)
                  0x0001ac          0x4 LONG 0x22aae DEFINED (__AltInterrupt76)?<code 339> (__AltInterrupt76):DEFINED (__Interrupt76)?<code 339> (__Interrupt76):<code 339> (__DefaultInterrupt)
                  0x0001ae          0x4 LONG 0x22aae DEFINED (__AltCTMUInterrupt)?<code 339> (__AltCTMUInterrupt):DEFINED (__CTMUInterrupt)?<code 339> (__CTMUInterrupt):<code 339> (__DefaultInterrupt)
                  0x0001b0          0x4 LONG 0x22aae DEFINED (__AltInterrupt78)?<code 339> (__AltInterrupt78):DEFINED (__Interrupt78)?<code 339> (__Interrupt78):<code 339> (__DefaultInterrupt)
                  0x0001b2          0x4 LONG 0x22aae DEFINED (__AltInterrupt79)?<code 339> (__AltInterrupt79):DEFINED (__Interrupt79)?<code 339> (__Interrupt79):<code 339> (__DefaultInterrupt)
                  0x0001b4          0x4 LONG 0x22aae DEFINED (__AltInterrupt80)?<code 339> (__AltInterrupt80):DEFINED (__Interrupt80)?<code 339> (__Interrupt80):<code 339> (__DefaultInterrupt)
                  0x0001b6          0x4 LONG 0x22aae DEFINED (__AltU3ErrInterrupt)?<code 339> (__AltU3ErrInterrupt):DEFINED (__U3ErrInterrupt)?<code 339> (__U3ErrInterrupt):<code 339> (__DefaultInterrupt)
                  0x0001b8          0x4 LONG 0x22a88 DEFINED (__AltU3RXInterrupt)?<code 339> (__AltU3RXInterrupt):DEFINED (__U3RXInterrupt)?<code 339> (__U3RXInterrupt):<code 339> (__DefaultInterrupt)
                  0x0001ba          0x4 LONG 0x22aae DEFINED (__AltU3TXInterrupt)?<code 339> (__AltU3TXInterrupt):DEFINED (__U3TXInterrupt)?<code 339> (__U3TXInterrupt):<code 339> (__DefaultInterrupt)
                  0x0001bc          0x4 LONG 0x22aae DEFINED (__AltSI2C3Interrupt)?<code 339> (__AltSI2C3Interrupt):DEFINED (__SI2C3Interrupt)?<code 339> (__SI2C3Interrupt):<code 339> (__DefaultInterrupt)
                  0x0001be          0x4 LONG 0x22aae DEFINED (__AltMI2C3Interrupt)?<code 339> (__AltMI2C3Interrupt):DEFINED (__MI2C3Interrupt)?<code 339> (__MI2C3Interrupt):<code 339> (__DefaultInterrupt)
                  0x0001c0          0x4 LONG 0x22aae DEFINED (__AltUSB1Interrupt)?<code 339> (__AltUSB1Interrupt):DEFINED (__USB1Interrupt)?<code 339> (__USB1Interrupt):<code 339> (__DefaultInterrupt)
                  0x0001c2          0x4 LONG 0x22aae DEFINED (__AltU4ErrInterrupt)?<code 339> (__AltU4ErrInterrupt):DEFINED (__U4ErrInterrupt)?<code 339> (__U4ErrInterrupt):<code 339> (__DefaultInterrupt)
                  0x0001c4          0x4 LONG 0x22aa8 DEFINED (__AltU4RXInterrupt)?<code 339> (__AltU4RXInterrupt):DEFINED (__U4RXInterrupt)?<code 339> (__U4RXInterrupt):<code 339> (__DefaultInterrupt)
                  0x0001c6          0x4 LONG 0x22aae DEFINED (__AltU4TXInterrupt)?<code 339> (__AltU4TXInterrupt):DEFINED (__U4TXInterrupt)?<code 339> (__U4TXInterrupt):<code 339> (__DefaultInterrupt)
                  0x0001c8          0x4 LONG 0x22aae DEFINED (__AltSPI3ErrInterrupt)?<code 339> (__AltSPI3ErrInterrupt):DEFINED (__SPI3ErrInterrupt)?<code 339> (__SPI3ErrInterrupt):<code 339> (__DefaultInterrupt)
                  0x0001ca          0x4 LONG 0x22aae DEFINED (__AltSPI3Interrupt)?<code 339> (__AltSPI3Interrupt):DEFINED (__SPI3Interrupt)?<code 339> (__SPI3Interrupt):<code 339> (__DefaultInterrupt)
                  0x0001cc          0x4 LONG 0x22aae DEFINED (__AltOC9Interrupt)?<code 339> (__AltOC9Interrupt):DEFINED (__OC9Interrupt)?<code 339> (__OC9Interrupt):<code 339> (__DefaultInterrupt)
                  0x0001ce          0x4 LONG 0x22aae DEFINED (__AltIC9Interrupt)?<code 339> (__AltIC9Interrupt):DEFINED (__IC9Interrupt)?<code 339> (__IC9Interrupt):<code 339> (__DefaultInterrupt)
                  0x0001d0          0x4 LONG 0x22aae DEFINED (__AltInterrupt94)?<code 339> (__AltInterrupt94):DEFINED (__Interrupt94)?<code 339> (__Interrupt94):<code 339> (__DefaultInterrupt)
                  0x0001d2          0x4 LONG 0x22aae DEFINED (__AltInterrupt95)?<code 339> (__AltInterrupt95):DEFINED (__Interrupt95)?<code 339> (__Interrupt95):<code 339> (__DefaultInterrupt)
                  0x0001d4          0x4 LONG 0x22aae DEFINED (__AltInterrupt96)?<code 339> (__AltInterrupt96):DEFINED (__Interrupt96)?<code 339> (__Interrupt96):<code 339> (__DefaultInterrupt)
                  0x0001d6          0x4 LONG 0x22aae DEFINED (__AltInterrupt97)?<code 339> (__AltInterrupt97):DEFINED (__Interrupt97)?<code 339> (__Interrupt97):<code 339> (__DefaultInterrupt)
                  0x0001d8          0x4 LONG 0x22aae DEFINED (__AltInterrupt98)?<code 339> (__AltInterrupt98):DEFINED (__Interrupt98)?<code 339> (__Interrupt98):<code 339> (__DefaultInterrupt)
                  0x0001da          0x4 LONG 0x22aae DEFINED (__AltInterrupt99)?<code 339> (__AltInterrupt99):DEFINED (__Interrupt99)?<code 339> (__Interrupt99):<code 339> (__DefaultInterrupt)
                  0x0001dc          0x4 LONG 0x22aae DEFINED (__AltInterrupt100)?<code 339> (__AltInterrupt100):DEFINED (__Interrupt100)?<code 339> (__Interrupt100):<code 339> (__DefaultInterrupt)
                  0x0001de          0x4 LONG 0x22aae DEFINED (__AltInterrupt101)?<code 339> (__AltInterrupt101):DEFINED (__Interrupt101)?<code 339> (__Interrupt101):<code 339> (__DefaultInterrupt)
                  0x0001e0          0x4 LONG 0x22aae DEFINED (__AltInterrupt102)?<code 339> (__AltInterrupt102):DEFINED (__Interrupt102)?<code 339> (__Interrupt102):<code 339> (__DefaultInterrupt)
                  0x0001e2          0x4 LONG 0x22aae DEFINED (__AltInterrupt103)?<code 339> (__AltInterrupt103):DEFINED (__Interrupt103)?<code 339> (__Interrupt103):<code 339> (__DefaultInterrupt)
                  0x0001e4          0x4 LONG 0x22aae DEFINED (__AltInterrupt104)?<code 339> (__AltInterrupt104):DEFINED (__Interrupt104)?<code 339> (__Interrupt104):<code 339> (__DefaultInterrupt)
                  0x0001e6          0x4 LONG 0x22aae DEFINED (__AltInterrupt105)?<code 339> (__AltInterrupt105):DEFINED (__Interrupt105)?<code 339> (__Interrupt105):<code 339> (__DefaultInterrupt)
                  0x0001e8          0x4 LONG 0x22aae DEFINED (__AltInterrupt106)?<code 339> (__AltInterrupt106):DEFINED (__Interrupt106)?<code 339> (__Interrupt106):<code 339> (__DefaultInterrupt)
                  0x0001ea          0x4 LONG 0x22aae DEFINED (__AltInterrupt107)?<code 339> (__AltInterrupt107):DEFINED (__Interrupt107)?<code 339> (__Interrupt107):<code 339> (__DefaultInterrupt)
                  0x0001ec          0x4 LONG 0x22aae DEFINED (__AltInterrupt108)?<code 339> (__AltInterrupt108):DEFINED (__Interrupt108)?<code 339> (__Interrupt108):<code 339> (__DefaultInterrupt)
                  0x0001ee          0x4 LONG 0x22aae DEFINED (__AltInterrupt109)?<code 339> (__AltInterrupt109):DEFINED (__Interrupt109)?<code 339> (__Interrupt109):<code 339> (__DefaultInterrupt)
                  0x0001f0          0x4 LONG 0x22aae DEFINED (__AltInterrupt110)?<code 339> (__AltInterrupt110):DEFINED (__Interrupt110)?<code 339> (__Interrupt110):<code 339> (__DefaultInterrupt)
                  0x0001f2          0x4 LONG 0x22aae DEFINED (__AltInterrupt111)?<code 339> (__AltInterrupt111):DEFINED (__Interrupt111)?<code 339> (__Interrupt111):<code 339> (__DefaultInterrupt)
                  0x0001f4          0x4 LONG 0x22aae DEFINED (__AltInterrupt112)?<code 339> (__AltInterrupt112):DEFINED (__Interrupt112)?<code 339> (__Interrupt112):<code 339> (__DefaultInterrupt)
                  0x0001f6          0x4 LONG 0x22aae DEFINED (__AltInterrupt113)?<code 339> (__AltInterrupt113):DEFINED (__Interrupt113)?<code 339> (__Interrupt113):<code 339> (__DefaultInterrupt)
                  0x0001f8          0x4 LONG 0x22aae DEFINED (__AltInterrupt114)?<code 339> (__AltInterrupt114):DEFINED (__Interrupt114)?<code 339> (__Interrupt114):<code 339> (__DefaultInterrupt)
                  0x0001fa          0x4 LONG 0x22aae DEFINED (__AltInterrupt115)?<code 339> (__AltInterrupt115):DEFINED (__Interrupt115)?<code 339> (__Interrupt115):<code 339> (__DefaultInterrupt)
                  0x0001fc          0x4 LONG 0x22aae DEFINED (__AltInterrupt116)?<code 339> (__AltInterrupt116):DEFINED (__Interrupt116)?<code 339> (__Interrupt116):<code 339> (__DefaultInterrupt)
                  0x0001fe          0x4 LONG 0x22aae DEFINED (__AltInterrupt117)?<code 339> (__AltInterrupt117):DEFINED (__Interrupt117)?<code 339> (__Interrupt117):<code 339> (__DefaultInterrupt)
                    0x0000                  WREG0 = 0x0
                    0x0000                  _WREG0 = 0x0
                    0x0002                  WREG1 = 0x2
                    0x0002                  _WREG1 = 0x2
                    0x0004                  WREG2 = 0x4
                    0x0004                  _WREG2 = 0x4
                    0x0006                  WREG3 = 0x6
                    0x0006                  _WREG3 = 0x6
                    0x0008                  WREG4 = 0x8
                    0x0008                  _WREG4 = 0x8
                    0x000a                  WREG5 = 0xa
                    0x000a                  _WREG5 = 0xa
                    0x000c                  WREG6 = 0xc
                    0x000c                  _WREG6 = 0xc
                    0x000e                  WREG7 = 0xe
                    0x000e                  _WREG7 = 0xe
                    0x0010                  WREG8 = 0x10
                    0x0010                  _WREG8 = 0x10
                    0x0012                  WREG9 = 0x12
                    0x0012                  _WREG9 = 0x12
                    0x0014                  WREG10 = 0x14
                    0x0014                  _WREG10 = 0x14
                    0x0016                  WREG11 = 0x16
                    0x0016                  _WREG11 = 0x16
                    0x0018                  WREG12 = 0x18
                    0x0018                  _WREG12 = 0x18
                    0x001a                  WREG13 = 0x1a
                    0x001a                  _WREG13 = 0x1a
                    0x001c                  WREG14 = 0x1c
                    0x001c                  _WREG14 = 0x1c
                    0x001e                  WREG15 = 0x1e
                    0x001e                  _WREG15 = 0x1e
                    0x0020                  SPLIM = 0x20
                    0x0020                  _SPLIM = 0x20
                    0x002e                  PCL = 0x2e
                    0x002e                  _PCL = 0x2e
                    0x0030                  PCH = 0x30
                    0x0030                  _PCH = 0x30
                    0x0032                  DSRPAG = 0x32
                    0x0032                  _DSRPAG = 0x32
                    0x0034                  DSWPAG = 0x34
                    0x0034                  _DSWPAG = 0x34
                    0x0036                  RCOUNT = 0x36
                    0x0036                  _RCOUNT = 0x36
                    0x0042                  SR = 0x42
                    0x0042                  _SR = 0x42
                    0x0042                  _SRbits = 0x42
                    0x0044                  CORCON = 0x44
                    0x0044                  _CORCON = 0x44
                    0x0044                  _CORCONbits = 0x44
                    0x0052                  DISICNT = 0x52
                    0x0052                  _DISICNT = 0x52
                    0x0054                  TBLPAG = 0x54
                    0x0054                  _TBLPAG = 0x54
                    0x0056                  CNPD1 = 0x56
                    0x0056                  _CNPD1 = 0x56
                    0x0056                  _CNPD1bits = 0x56
                    0x0058                  CNPD2 = 0x58
                    0x0058                  _CNPD2 = 0x58
                    0x0058                  _CNPD2bits = 0x58
                    0x005a                  CNPD3 = 0x5a
                    0x005a                  _CNPD3 = 0x5a
                    0x005a                  _CNPD3bits = 0x5a
                    0x005c                  CNPD4 = 0x5c
                    0x005c                  _CNPD4 = 0x5c
                    0x005c                  _CNPD4bits = 0x5c
                    0x005e                  CNPD5 = 0x5e
                    0x005e                  _CNPD5 = 0x5e
                    0x005e                  _CNPD5bits = 0x5e
                    0x0060                  CNPD6 = 0x60
                    0x0060                  _CNPD6 = 0x60
                    0x0060                  _CNPD6bits = 0x60
                    0x0062                  CNEN1 = 0x62
                    0x0062                  _CNEN1 = 0x62
                    0x0062                  _CNEN1bits = 0x62
                    0x0064                  CNEN2 = 0x64
                    0x0064                  _CNEN2 = 0x64
                    0x0064                  _CNEN2bits = 0x64
                    0x0066                  CNEN3 = 0x66
                    0x0066                  _CNEN3 = 0x66
                    0x0066                  _CNEN3bits = 0x66
                    0x0068                  CNEN4 = 0x68
                    0x0068                  _CNEN4 = 0x68
                    0x0068                  _CNEN4bits = 0x68
                    0x006a                  CNEN5 = 0x6a
                    0x006a                  _CNEN5 = 0x6a
                    0x006a                  _CNEN5bits = 0x6a
                    0x006c                  CNEN6 = 0x6c
                    0x006c                  _CNEN6 = 0x6c
                    0x006c                  _CNEN6bits = 0x6c
                    0x006e                  CNPU1 = 0x6e
                    0x006e                  _CNPU1 = 0x6e
                    0x006e                  _CNPU1bits = 0x6e
                    0x0070                  CNPU2 = 0x70
                    0x0070                  _CNPU2 = 0x70
                    0x0070                  _CNPU2bits = 0x70
                    0x0072                  CNPU3 = 0x72
                    0x0072                  _CNPU3 = 0x72
                    0x0072                  _CNPU3bits = 0x72
                    0x0074                  CNPU4 = 0x74
                    0x0074                  _CNPU4 = 0x74
                    0x0074                  _CNPU4bits = 0x74
                    0x0076                  CNPU5 = 0x76
                    0x0076                  _CNPU5 = 0x76
                    0x0076                  _CNPU5bits = 0x76
                    0x0078                  CNPU6 = 0x78
                    0x0078                  _CNPU6 = 0x78
                    0x0078                  _CNPU6bits = 0x78
                    0x0080                  INTCON1 = 0x80
                    0x0080                  _INTCON1 = 0x80
                    0x0080                  _INTCON1bits = 0x80
                    0x0082                  INTCON2 = 0x82
                    0x0082                  _INTCON2 = 0x82
                    0x0082                  _INTCON2bits = 0x82
                    0x0084                  IFS0 = 0x84
                    0x0084                  _IFS0 = 0x84
                    0x0084                  _IFS0bits = 0x84
                    0x0086                  IFS1 = 0x86
                    0x0086                  _IFS1 = 0x86
                    0x0086                  _IFS1bits = 0x86
                    0x0088                  IFS2 = 0x88
                    0x0088                  _IFS2 = 0x88
                    0x0088                  _IFS2bits = 0x88
                    0x008a                  IFS3 = 0x8a
                    0x008a                  _IFS3 = 0x8a
                    0x008a                  _IFS3bits = 0x8a
                    0x008c                  IFS4 = 0x8c
                    0x008c                  _IFS4 = 0x8c
                    0x008c                  _IFS4bits = 0x8c
                    0x008e                  IFS5 = 0x8e
                    0x008e                  _IFS5 = 0x8e
                    0x008e                  _IFS5bits = 0x8e
                    0x0094                  IEC0 = 0x94
                    0x0094                  _IEC0 = 0x94
                    0x0094                  _IEC0bits = 0x94
                    0x0096                  IEC1 = 0x96
                    0x0096                  _IEC1 = 0x96
                    0x0096                  _IEC1bits = 0x96
                    0x0098                  IEC2 = 0x98
                    0x0098                  _IEC2 = 0x98
                    0x0098                  _IEC2bits = 0x98
                    0x009a                  IEC3 = 0x9a
                    0x009a                  _IEC3 = 0x9a
                    0x009a                  _IEC3bits = 0x9a
                    0x009c                  IEC4 = 0x9c
                    0x009c                  _IEC4 = 0x9c
                    0x009c                  _IEC4bits = 0x9c
                    0x009e                  IEC5 = 0x9e
                    0x009e                  _IEC5 = 0x9e
                    0x009e                  _IEC5bits = 0x9e
                    0x00a4                  IPC0 = 0xa4
                    0x00a4                  _IPC0 = 0xa4
                    0x00a4                  _IPC0bits = 0xa4
                    0x00a6                  IPC1 = 0xa6
                    0x00a6                  _IPC1 = 0xa6
                    0x00a6                  _IPC1bits = 0xa6
                    0x00a8                  IPC2 = 0xa8
                    0x00a8                  _IPC2 = 0xa8
                    0x00a8                  _IPC2bits = 0xa8
                    0x00aa                  IPC3 = 0xaa
                    0x00aa                  _IPC3 = 0xaa
                    0x00aa                  _IPC3bits = 0xaa
                    0x00ac                  IPC4 = 0xac
                    0x00ac                  _IPC4 = 0xac
                    0x00ac                  _IPC4bits = 0xac
                    0x00ae                  IPC5 = 0xae
                    0x00ae                  _IPC5 = 0xae
                    0x00ae                  _IPC5bits = 0xae
                    0x00b0                  IPC6 = 0xb0
                    0x00b0                  _IPC6 = 0xb0
                    0x00b0                  _IPC6bits = 0xb0
                    0x00b2                  IPC7 = 0xb2
                    0x00b2                  _IPC7 = 0xb2
                    0x00b2                  _IPC7bits = 0xb2
                    0x00b4                  IPC8 = 0xb4
                    0x00b4                  _IPC8 = 0xb4
                    0x00b4                  _IPC8bits = 0xb4
                    0x00b6                  IPC9 = 0xb6
                    0x00b6                  _IPC9 = 0xb6
                    0x00b6                  _IPC9bits = 0xb6
                    0x00b8                  IPC10 = 0xb8
                    0x00b8                  _IPC10 = 0xb8
                    0x00b8                  _IPC10bits = 0xb8
                    0x00ba                  IPC11 = 0xba
                    0x00ba                  _IPC11 = 0xba
                    0x00ba                  _IPC11bits = 0xba
                    0x00bc                  IPC12 = 0xbc
                    0x00bc                  _IPC12 = 0xbc
                    0x00bc                  _IPC12bits = 0xbc
                    0x00be                  IPC13 = 0xbe
                    0x00be                  _IPC13 = 0xbe
                    0x00be                  _IPC13bits = 0xbe
                    0x00c2                  IPC15 = 0xc2
                    0x00c2                  _IPC15 = 0xc2
                    0x00c2                  _IPC15bits = 0xc2
                    0x00c4                  IPC16 = 0xc4
                    0x00c4                  _IPC16 = 0xc4
                    0x00c4                  _IPC16bits = 0xc4
                    0x00c8                  IPC18 = 0xc8
                    0x00c8                  _IPC18 = 0xc8
                    0x00c8                  _IPC18bits = 0xc8
                    0x00ca                  IPC19 = 0xca
                    0x00ca                  _IPC19 = 0xca
                    0x00ca                  _IPC19bits = 0xca
                    0x00cc                  IPC20 = 0xcc
                    0x00cc                  _IPC20 = 0xcc
                    0x00cc                  _IPC20bits = 0xcc
                    0x00ce                  IPC21 = 0xce
                    0x00ce                  _IPC21 = 0xce
                    0x00ce                  _IPC21bits = 0xce
                    0x00d0                  IPC22 = 0xd0
                    0x00d0                  _IPC22 = 0xd0
                    0x00d0                  _IPC22bits = 0xd0
                    0x00d2                  IPC23 = 0xd2
                    0x00d2                  _IPC23 = 0xd2
                    0x00d2                  _IPC23bits = 0xd2
                    0x00e0                  INTTREG = 0xe0
                    0x00e0                  _INTTREG = 0xe0
                    0x00e0                  _INTTREGbits = 0xe0
                    0x0100                  TMR1 = 0x100
                    0x0100                  _TMR1 = 0x100
                    0x0102                  PR1 = 0x102
                    0x0102                  _PR1 = 0x102
                    0x0104                  T1CON = 0x104
                    0x0104                  _T1CON = 0x104
                    0x0104                  _T1CONbits = 0x104
                    0x0106                  TMR2 = 0x106
                    0x0106                  _TMR2 = 0x106
                    0x0108                  TMR3HLD = 0x108
                    0x0108                  _TMR3HLD = 0x108
                    0x010a                  TMR3 = 0x10a
                    0x010a                  _TMR3 = 0x10a
                    0x010c                  PR2 = 0x10c
                    0x010c                  _PR2 = 0x10c
                    0x010e                  PR3 = 0x10e
                    0x010e                  _PR3 = 0x10e
                    0x0110                  T2CON = 0x110
                    0x0110                  _T2CON = 0x110
                    0x0110                  _T2CONbits = 0x110
                    0x0112                  T3CON = 0x112
                    0x0112                  _T3CON = 0x112
                    0x0112                  _T3CONbits = 0x112
                    0x0114                  TMR4 = 0x114
                    0x0114                  _TMR4 = 0x114
                    0x0116                  TMR5HLD = 0x116
                    0x0116                  _TMR5HLD = 0x116
                    0x0118                  TMR5 = 0x118
                    0x0118                  _TMR5 = 0x118
                    0x011a                  PR4 = 0x11a
                    0x011a                  _PR4 = 0x11a
                    0x011c                  PR5 = 0x11c
                    0x011c                  _PR5 = 0x11c
                    0x011e                  T4CON = 0x11e
                    0x011e                  _T4CON = 0x11e
                    0x011e                  _T4CONbits = 0x11e
                    0x0120                  T5CON = 0x120
                    0x0120                  _T5CON = 0x120
                    0x0120                  _T5CONbits = 0x120
                    0x0140                  IC1CON1 = 0x140
                    0x0140                  _IC1CON1 = 0x140
                    0x0140                  _IC1CON1bits = 0x140
                    0x0142                  IC1CON2 = 0x142
                    0x0142                  _IC1CON2 = 0x142
                    0x0142                  _IC1CON2bits = 0x142
                    0x0144                  IC1BUF = 0x144
                    0x0144                  _IC1BUF = 0x144
                    0x0146                  IC1TMR = 0x146
                    0x0146                  _IC1TMR = 0x146
                    0x0148                  IC2CON1 = 0x148
                    0x0148                  _IC2CON1 = 0x148
                    0x0148                  _IC2CON1bits = 0x148
                    0x014a                  IC2CON2 = 0x14a
                    0x014a                  _IC2CON2 = 0x14a
                    0x014a                  _IC2CON2bits = 0x14a
                    0x014c                  IC2BUF = 0x14c
                    0x014c                  _IC2BUF = 0x14c
                    0x014e                  IC2TMR = 0x14e
                    0x014e                  _IC2TMR = 0x14e
                    0x0150                  IC3CON1 = 0x150
                    0x0150                  _IC3CON1 = 0x150
                    0x0150                  _IC3CON1bits = 0x150
                    0x0152                  IC3CON2 = 0x152
                    0x0152                  _IC3CON2 = 0x152
                    0x0152                  _IC3CON2bits = 0x152
                    0x0154                  IC3BUF = 0x154
                    0x0154                  _IC3BUF = 0x154
                    0x0156                  IC3TMR = 0x156
                    0x0156                  _IC3TMR = 0x156
                    0x0158                  IC4CON1 = 0x158
                    0x0158                  _IC4CON1 = 0x158
                    0x0158                  _IC4CON1bits = 0x158
                    0x015a                  IC4CON2 = 0x15a
                    0x015a                  _IC4CON2 = 0x15a
                    0x015a                  _IC4CON2bits = 0x15a
                    0x015c                  IC4BUF = 0x15c
                    0x015c                  _IC4BUF = 0x15c
                    0x015e                  IC4TMR = 0x15e
                    0x015e                  _IC4TMR = 0x15e
                    0x0160                  IC5CON1 = 0x160
                    0x0160                  _IC5CON1 = 0x160
                    0x0160                  _IC5CON1bits = 0x160
                    0x0162                  IC5CON2 = 0x162
                    0x0162                  _IC5CON2 = 0x162
                    0x0162                  _IC5CON2bits = 0x162
                    0x0164                  IC5BUF = 0x164
                    0x0164                  _IC5BUF = 0x164
                    0x0166                  IC5TMR = 0x166
                    0x0166                  _IC5TMR = 0x166
                    0x0168                  IC6CON1 = 0x168
                    0x0168                  _IC6CON1 = 0x168
                    0x0168                  _IC6CON1bits = 0x168
                    0x016a                  IC6CON2 = 0x16a
                    0x016a                  _IC6CON2 = 0x16a
                    0x016a                  _IC6CON2bits = 0x16a
                    0x016c                  IC6BUF = 0x16c
                    0x016c                  _IC6BUF = 0x16c
                    0x016e                  IC6TMR = 0x16e
                    0x016e                  _IC6TMR = 0x16e
                    0x0170                  IC7CON1 = 0x170
                    0x0170                  _IC7CON1 = 0x170
                    0x0170                  _IC7CON1bits = 0x170
                    0x0172                  IC7CON2 = 0x172
                    0x0172                  _IC7CON2 = 0x172
                    0x0172                  _IC7CON2bits = 0x172
                    0x0174                  IC7BUF = 0x174
                    0x0174                  _IC7BUF = 0x174
                    0x0176                  IC7TMR = 0x176
                    0x0176                  _IC7TMR = 0x176
                    0x0178                  IC8CON1 = 0x178
                    0x0178                  _IC8CON1 = 0x178
                    0x0178                  _IC8CON1bits = 0x178
                    0x017a                  IC8CON2 = 0x17a
                    0x017a                  _IC8CON2 = 0x17a
                    0x017a                  _IC8CON2bits = 0x17a
                    0x017c                  IC8BUF = 0x17c
                    0x017c                  _IC8BUF = 0x17c
                    0x017e                  IC8TMR = 0x17e
                    0x017e                  _IC8TMR = 0x17e
                    0x0180                  IC9CON1 = 0x180
                    0x0180                  _IC9CON1 = 0x180
                    0x0180                  _IC9CON1bits = 0x180
                    0x0182                  IC9CON2 = 0x182
                    0x0182                  _IC9CON2 = 0x182
                    0x0182                  _IC9CON2bits = 0x182
                    0x0184                  IC9BUF = 0x184
                    0x0184                  _IC9BUF = 0x184
                    0x0186                  IC9TMR = 0x186
                    0x0186                  _IC9TMR = 0x186
                    0x0190                  OC1CON1 = 0x190
                    0x0190                  _OC1CON1 = 0x190
                    0x0190                  _OC1CON1bits = 0x190
                    0x0192                  OC1CON2 = 0x192
                    0x0192                  _OC1CON2 = 0x192
                    0x0192                  _OC1CON2bits = 0x192
                    0x0194                  OC1RS = 0x194
                    0x0194                  _OC1RS = 0x194
                    0x0196                  OC1R = 0x196
                    0x0196                  _OC1R = 0x196
                    0x0198                  OC1TMR = 0x198
                    0x0198                  _OC1TMR = 0x198
                    0x019a                  OC2CON1 = 0x19a
                    0x019a                  _OC2CON1 = 0x19a
                    0x019a                  _OC2CON1bits = 0x19a
                    0x019c                  OC2CON2 = 0x19c
                    0x019c                  _OC2CON2 = 0x19c
                    0x019c                  _OC2CON2bits = 0x19c
                    0x019e                  OC2RS = 0x19e
                    0x019e                  _OC2RS = 0x19e
                    0x01a0                  OC2R = 0x1a0
                    0x01a0                  _OC2R = 0x1a0
                    0x01a2                  OC2TMR = 0x1a2
                    0x01a2                  _OC2TMR = 0x1a2
                    0x01a4                  OC3CON1 = 0x1a4
                    0x01a4                  _OC3CON1 = 0x1a4
                    0x01a4                  _OC3CON1bits = 0x1a4
                    0x01a6                  OC3CON2 = 0x1a6
                    0x01a6                  _OC3CON2 = 0x1a6
                    0x01a6                  _OC3CON2bits = 0x1a6
                    0x01a8                  OC3RS = 0x1a8
                    0x01a8                  _OC3RS = 0x1a8
                    0x01aa                  OC3R = 0x1aa
                    0x01aa                  _OC3R = 0x1aa
                    0x01ac                  OC3TMR = 0x1ac
                    0x01ac                  _OC3TMR = 0x1ac
                    0x01ae                  OC4CON1 = 0x1ae
                    0x01ae                  _OC4CON1 = 0x1ae
                    0x01ae                  _OC4CON1bits = 0x1ae
                    0x01b0                  OC4CON2 = 0x1b0
                    0x01b0                  _OC4CON2 = 0x1b0
                    0x01b0                  _OC4CON2bits = 0x1b0
                    0x01b2                  OC4RS = 0x1b2
                    0x01b2                  _OC4RS = 0x1b2
                    0x01b4                  OC4R = 0x1b4
                    0x01b4                  _OC4R = 0x1b4
                    0x01b6                  OC4TMR = 0x1b6
                    0x01b6                  _OC4TMR = 0x1b6
                    0x01b8                  OC5CON1 = 0x1b8
                    0x01b8                  _OC5CON1 = 0x1b8
                    0x01b8                  _OC5CON1bits = 0x1b8
                    0x01ba                  OC5CON2 = 0x1ba
                    0x01ba                  _OC5CON2 = 0x1ba
                    0x01ba                  _OC5CON2bits = 0x1ba
                    0x01bc                  OC5RS = 0x1bc
                    0x01bc                  _OC5RS = 0x1bc
                    0x01be                  OC5R = 0x1be
                    0x01be                  _OC5R = 0x1be
                    0x01c0                  OC5TMR = 0x1c0
                    0x01c0                  _OC5TMR = 0x1c0
                    0x01c2                  OC6CON1 = 0x1c2
                    0x01c2                  _OC6CON1 = 0x1c2
                    0x01c2                  _OC6CON1bits = 0x1c2
                    0x01c4                  OC6CON2 = 0x1c4
                    0x01c4                  _OC6CON2 = 0x1c4
                    0x01c4                  _OC6CON2bits = 0x1c4
                    0x01c6                  OC6RS = 0x1c6
                    0x01c6                  _OC6RS = 0x1c6
                    0x01c8                  OC6R = 0x1c8
                    0x01c8                  _OC6R = 0x1c8
                    0x01ca                  OC6TMR = 0x1ca
                    0x01ca                  _OC6TMR = 0x1ca
                    0x01cc                  OC7CON1 = 0x1cc
                    0x01cc                  _OC7CON1 = 0x1cc
                    0x01cc                  _OC7CON1bits = 0x1cc
                    0x01ce                  OC7CON2 = 0x1ce
                    0x01ce                  _OC7CON2 = 0x1ce
                    0x01ce                  _OC7CON2bits = 0x1ce
                    0x01d0                  OC7RS = 0x1d0
                    0x01d0                  _OC7RS = 0x1d0
                    0x01d2                  OC7R = 0x1d2
                    0x01d2                  _OC7R = 0x1d2
                    0x01d4                  OC7TMR = 0x1d4
                    0x01d4                  _OC7TMR = 0x1d4
                    0x01d6                  OC8CON1 = 0x1d6
                    0x01d6                  _OC8CON1 = 0x1d6
                    0x01d6                  _OC8CON1bits = 0x1d6
                    0x01d8                  OC8CON2 = 0x1d8
                    0x01d8                  _OC8CON2 = 0x1d8
                    0x01d8                  _OC8CON2bits = 0x1d8
                    0x01da                  OC8RS = 0x1da
                    0x01da                  _OC8RS = 0x1da
                    0x01dc                  OC8R = 0x1dc
                    0x01dc                  _OC8R = 0x1dc
                    0x01de                  OC8TMR = 0x1de
                    0x01de                  _OC8TMR = 0x1de
                    0x01e0                  OC9CON1 = 0x1e0
                    0x01e0                  _OC9CON1 = 0x1e0
                    0x01e0                  _OC9CON1bits = 0x1e0
                    0x01e2                  OC9CON2 = 0x1e2
                    0x01e2                  _OC9CON2 = 0x1e2
                    0x01e2                  _OC9CON2bits = 0x1e2
                    0x01e4                  OC9RS = 0x1e4
                    0x01e4                  _OC9RS = 0x1e4
                    0x01e6                  OC9R = 0x1e6
                    0x01e6                  _OC9R = 0x1e6
                    0x01e8                  OC9TMR = 0x1e8
                    0x01e8                  _OC9TMR = 0x1e8
                    0x0200                  I2C1RCV = 0x200
                    0x0200                  _I2C1RCV = 0x200
                    0x0202                  I2C1TRN = 0x202
                    0x0202                  _I2C1TRN = 0x202
                    0x0204                  I2C1BRG = 0x204
                    0x0204                  _I2C1BRG = 0x204
                    0x0206                  I2C1CON = 0x206
                    0x0206                  _I2C1CON = 0x206
                    0x0206                  _I2C1CONbits = 0x206
                    0x0208                  I2C1STAT = 0x208
                    0x0208                  _I2C1STAT = 0x208
                    0x0208                  _I2C1STATbits = 0x208
                    0x020a                  I2C1ADD = 0x20a
                    0x020a                  _I2C1ADD = 0x20a
                    0x020c                  I2C1MSK = 0x20c
                    0x020c                  _I2C1MSK = 0x20c
                    0x0210                  I2C2RCV = 0x210
                    0x0210                  _I2C2RCV = 0x210
                    0x0212                  I2C2TRN = 0x212
                    0x0212                  _I2C2TRN = 0x212
                    0x0214                  I2C2BRG = 0x214
                    0x0214                  _I2C2BRG = 0x214
                    0x0216                  I2C2CON = 0x216
                    0x0216                  _I2C2CON = 0x216
                    0x0216                  _I2C2CONbits = 0x216
                    0x0218                  I2C2STAT = 0x218
                    0x0218                  _I2C2STAT = 0x218
                    0x0218                  _I2C2STATbits = 0x218
                    0x021a                  I2C2ADD = 0x21a
                    0x021a                  _I2C2ADD = 0x21a
                    0x021c                  I2C2MSK = 0x21c
                    0x021c                  _I2C2MSK = 0x21c
                    0x0220                  U1MODE = 0x220
                    0x0220                  _U1MODE = 0x220
                    0x0220                  _U1MODEbits = 0x220
                    0x0222                  U1STA = 0x222
                    0x0222                  _U1STA = 0x222
                    0x0222                  _U1STAbits = 0x222
                    0x0224                  U1TXREG = 0x224
                    0x0224                  _U1TXREG = 0x224
                    0x0224                  _U1TXREGbits = 0x224
                    0x0226                  U1RXREG = 0x226
                    0x0226                  _U1RXREG = 0x226
                    0x0226                  _U1RXREGbits = 0x226
                    0x0228                  U1BRG = 0x228
                    0x0228                  _U1BRG = 0x228
                    0x0230                  U2MODE = 0x230
                    0x0230                  _U2MODE = 0x230
                    0x0230                  _U2MODEbits = 0x230
                    0x0232                  U2STA = 0x232
                    0x0232                  _U2STA = 0x232
                    0x0232                  _U2STAbits = 0x232
                    0x0234                  U2TXREG = 0x234
                    0x0234                  _U2TXREG = 0x234
                    0x0234                  _U2TXREGbits = 0x234
                    0x0236                  U2RXREG = 0x236
                    0x0236                  _U2RXREG = 0x236
                    0x0236                  _U2RXREGbits = 0x236
                    0x0238                  U2BRG = 0x238
                    0x0238                  _U2BRG = 0x238
                    0x0240                  SPI1STAT = 0x240
                    0x0240                  _SPI1STAT = 0x240
                    0x0240                  _SPI1STATbits = 0x240
                    0x0242                  SPI1CON1 = 0x242
                    0x0242                  _SPI1CON1 = 0x242
                    0x0242                  _SPI1CON1bits = 0x242
                    0x0244                  SPI1CON2 = 0x244
                    0x0244                  _SPI1CON2 = 0x244
                    0x0244                  _SPI1CON2bits = 0x244
                    0x0248                  SPI1BUF = 0x248
                    0x0248                  _SPI1BUF = 0x248
                    0x0250                  U3MODE = 0x250
                    0x0250                  _U3MODE = 0x250
                    0x0250                  _U3MODEbits = 0x250
                    0x0252                  U3STA = 0x252
                    0x0252                  _U3STA = 0x252
                    0x0252                  _U3STAbits = 0x252
                    0x0254                  U3TXREG = 0x254
                    0x0254                  _U3TXREG = 0x254
                    0x0254                  _U3TXREGbits = 0x254
                    0x0256                  U3RXREG = 0x256
                    0x0256                  _U3RXREG = 0x256
                    0x0256                  _U3RXREGbits = 0x256
                    0x0258                  U3BRG = 0x258
                    0x0258                  _U3BRG = 0x258
                    0x0260                  SPI2STAT = 0x260
                    0x0260                  _SPI2STAT = 0x260
                    0x0260                  _SPI2STATbits = 0x260
                    0x0262                  SPI2CON1 = 0x262
                    0x0262                  _SPI2CON1 = 0x262
                    0x0262                  _SPI2CON1bits = 0x262
                    0x0264                  SPI2CON2 = 0x264
                    0x0264                  _SPI2CON2 = 0x264
                    0x0264                  _SPI2CON2bits = 0x264
                    0x0268                  SPI2BUF = 0x268
                    0x0268                  _SPI2BUF = 0x268
                    0x0270                  I2C3RCV = 0x270
                    0x0270                  _I2C3RCV = 0x270
                    0x0272                  I2C3TRN = 0x272
                    0x0272                  _I2C3TRN = 0x272
                    0x0274                  I2C3BRG = 0x274
                    0x0274                  _I2C3BRG = 0x274
                    0x0276                  I2C3CON = 0x276
                    0x0276                  _I2C3CON = 0x276
                    0x0276                  _I2C3CONbits = 0x276
                    0x0278                  I2C3STAT = 0x278
                    0x0278                  _I2C3STAT = 0x278
                    0x0278                  _I2C3STATbits = 0x278
                    0x027a                  I2C3ADD = 0x27a
                    0x027a                  _I2C3ADD = 0x27a
                    0x027c                  I2C3MSK = 0x27c
                    0x027c                  _I2C3MSK = 0x27c
                    0x0280                  SPI3STAT = 0x280
                    0x0280                  _SPI3STAT = 0x280
                    0x0280                  _SPI3STATbits = 0x280
                    0x0282                  SPI3CON1 = 0x282
                    0x0282                  _SPI3CON1 = 0x282
                    0x0282                  _SPI3CON1bits = 0x282
                    0x0284                  SPI3CON2 = 0x284
                    0x0284                  _SPI3CON2 = 0x284
                    0x0284                  _SPI3CON2bits = 0x284
                    0x0288                  SPI3BUF = 0x288
                    0x0288                  _SPI3BUF = 0x288
                    0x02b0                  U4MODE = 0x2b0
                    0x02b0                  _U4MODE = 0x2b0
                    0x02b0                  _U4MODEbits = 0x2b0
                    0x02b2                  U4STA = 0x2b2
                    0x02b2                  _U4STA = 0x2b2
                    0x02b2                  _U4STAbits = 0x2b2
                    0x02b4                  U4TXREG = 0x2b4
                    0x02b4                  _U4TXREG = 0x2b4
                    0x02b4                  _U4TXREGbits = 0x2b4
                    0x02b6                  U4RXREG = 0x2b6
                    0x02b6                  _U4RXREG = 0x2b6
                    0x02b6                  _U4RXREGbits = 0x2b6
                    0x02b8                  U4BRG = 0x2b8
                    0x02b8                  _U4BRG = 0x2b8
                    0x02c8                  TRISB = 0x2c8
                    0x02c8                  _TRISB = 0x2c8
                    0x02c8                  _TRISBbits = 0x2c8
                    0x02ca                  PORTB = 0x2ca
                    0x02ca                  _PORTB = 0x2ca
                    0x02ca                  _PORTBbits = 0x2ca
                    0x02cc                  LATB = 0x2cc
                    0x02cc                  _LATB = 0x2cc
                    0x02cc                  _LATBbits = 0x2cc
                    0x02ce                  ODCB = 0x2ce
                    0x02ce                  _ODCB = 0x2ce
                    0x02ce                  _ODCBbits = 0x2ce
                    0x02d0                  TRISC = 0x2d0
                    0x02d0                  _TRISC = 0x2d0
                    0x02d0                  _TRISCbits = 0x2d0
                    0x02d2                  PORTC = 0x2d2
                    0x02d2                  _PORTC = 0x2d2
                    0x02d2                  _PORTCbits = 0x2d2
                    0x02d4                  LATC = 0x2d4
                    0x02d4                  _LATC = 0x2d4
                    0x02d4                  _LATCbits = 0x2d4
                    0x02d6                  ODCC = 0x2d6
                    0x02d6                  _ODCC = 0x2d6
                    0x02d6                  _ODCCbits = 0x2d6
                    0x02d8                  TRISD = 0x2d8
                    0x02d8                  _TRISD = 0x2d8
                    0x02d8                  _TRISDbits = 0x2d8
                    0x02da                  PORTD = 0x2da
                    0x02da                  _PORTD = 0x2da
                    0x02da                  _PORTDbits = 0x2da
                    0x02dc                  LATD = 0x2dc
                    0x02dc                  _LATD = 0x2dc
                    0x02dc                  _LATDbits = 0x2dc
                    0x02de                  ODCD = 0x2de
                    0x02de                  _ODCD = 0x2de
                    0x02de                  _ODCDbits = 0x2de
                    0x02e0                  TRISE = 0x2e0
                    0x02e0                  _TRISE = 0x2e0
                    0x02e0                  _TRISEbits = 0x2e0
                    0x02e2                  PORTE = 0x2e2
                    0x02e2                  _PORTE = 0x2e2
                    0x02e2                  _PORTEbits = 0x2e2
                    0x02e4                  LATE = 0x2e4
                    0x02e4                  _LATE = 0x2e4
                    0x02e4                  _LATEbits = 0x2e4
                    0x02e6                  ODCE = 0x2e6
                    0x02e6                  _ODCE = 0x2e6
                    0x02e6                  _ODCEbits = 0x2e6
                    0x02e8                  TRISF = 0x2e8
                    0x02e8                  _TRISF = 0x2e8
                    0x02e8                  _TRISFbits = 0x2e8
                    0x02ea                  PORTF = 0x2ea
                    0x02ea                  _PORTF = 0x2ea
                    0x02ea                  _PORTFbits = 0x2ea
                    0x02ec                  LATF = 0x2ec
                    0x02ec                  _LATF = 0x2ec
                    0x02ec                  _LATFbits = 0x2ec
                    0x02ee                  ODCF = 0x2ee
                    0x02ee                  _ODCF = 0x2ee
                    0x02ee                  _ODCFbits = 0x2ee
                    0x02f0                  TRISG = 0x2f0
                    0x02f0                  _TRISG = 0x2f0
                    0x02f0                  _TRISGbits = 0x2f0
                    0x02f2                  PORTG = 0x2f2
                    0x02f2                  _PORTG = 0x2f2
                    0x02f2                  _PORTGbits = 0x2f2
                    0x02f4                  LATG = 0x2f4
                    0x02f4                  _LATG = 0x2f4
                    0x02f4                  _LATGbits = 0x2f4
                    0x02f6                  ODCG = 0x2f6
                    0x02f6                  _ODCG = 0x2f6
                    0x02f6                  _ODCGbits = 0x2f6
                    0x02fc                  PADCFG1 = 0x2fc
                    0x02fc                  _PADCFG1 = 0x2fc
                    0x02fc                  _PADCFG1bits = 0x2fc
                    0x0300                  ADC1BUF0 = 0x300
                    0x0300                  _ADC1BUF0 = 0x300
                    0x0302                  ADC1BUF1 = 0x302
                    0x0302                  _ADC1BUF1 = 0x302
                    0x0304                  ADC1BUF2 = 0x304
                    0x0304                  _ADC1BUF2 = 0x304
                    0x0306                  ADC1BUF3 = 0x306
                    0x0306                  _ADC1BUF3 = 0x306
                    0x0308                  ADC1BUF4 = 0x308
                    0x0308                  _ADC1BUF4 = 0x308
                    0x030a                  ADC1BUF5 = 0x30a
                    0x030a                  _ADC1BUF5 = 0x30a
                    0x030c                  ADC1BUF6 = 0x30c
                    0x030c                  _ADC1BUF6 = 0x30c
                    0x030e                  ADC1BUF7 = 0x30e
                    0x030e                  _ADC1BUF7 = 0x30e
                    0x0310                  ADC1BUF8 = 0x310
                    0x0310                  _ADC1BUF8 = 0x310
                    0x0312                  ADC1BUF9 = 0x312
                    0x0312                  _ADC1BUF9 = 0x312
                    0x0314                  ADC1BUFA = 0x314
                    0x0314                  _ADC1BUFA = 0x314
                    0x0316                  ADC1BUFB = 0x316
                    0x0316                  _ADC1BUFB = 0x316
                    0x0318                  ADC1BUFC = 0x318
                    0x0318                  _ADC1BUFC = 0x318
                    0x031a                  ADC1BUFD = 0x31a
                    0x031a                  _ADC1BUFD = 0x31a
                    0x031c                  ADC1BUFE = 0x31c
                    0x031c                  _ADC1BUFE = 0x31c
                    0x031e                  ADC1BUFF = 0x31e
                    0x031e                  _ADC1BUFF = 0x31e
                    0x0320                  AD1CON1 = 0x320
                    0x0320                  _AD1CON1 = 0x320
                    0x0320                  _AD1CON1bits = 0x320
                    0x0322                  AD1CON2 = 0x322
                    0x0322                  _AD1CON2 = 0x322
                    0x0322                  _AD1CON2bits = 0x322
                    0x0324                  AD1CON3 = 0x324
                    0x0324                  _AD1CON3 = 0x324
                    0x0324                  _AD1CON3bits = 0x324
                    0x0328                  AD1CHS = 0x328
                    0x0328                  _AD1CHS = 0x328
                    0x0328                  _AD1CHSbits = 0x328
                    0x0328                  AD1CHS0 = 0x328
                    0x0328                  _AD1CHS0 = 0x328
                    0x0328                  _AD1CHS0bits = 0x328
                    0x032e                  AD1CSSH = 0x32e
                    0x032e                  _AD1CSSH = 0x32e
                    0x032e                  _AD1CSSHbits = 0x32e
                    0x0330                  AD1CSSL = 0x330
                    0x0330                  _AD1CSSL = 0x330
                    0x0330                  _AD1CSSLbits = 0x330
                    0x033c                  CTMUCON = 0x33c
                    0x033c                  _CTMUCON = 0x33c
                    0x033c                  _CTMUCONbits = 0x33c
                    0x033e                  CTMUICON = 0x33e
                    0x033e                  _CTMUICON = 0x33e
                    0x033e                  _CTMUICONbits = 0x33e
                    0x0340                  ADC1BUF10 = 0x340
                    0x0340                  _ADC1BUF10 = 0x340
                    0x0342                  ADC1BUF11 = 0x342
                    0x0342                  _ADC1BUF11 = 0x342
                    0x0344                  ADC1BUF12 = 0x344
                    0x0344                  _ADC1BUF12 = 0x344
                    0x0346                  ADC1BUF13 = 0x346
                    0x0346                  _ADC1BUF13 = 0x346
                    0x0348                  ADC1BUF14 = 0x348
                    0x0348                  _ADC1BUF14 = 0x348
                    0x034a                  ADC1BUF15 = 0x34a
                    0x034a                  _ADC1BUF15 = 0x34a
                    0x034c                  ADC1BUF16 = 0x34c
                    0x034c                  _ADC1BUF16 = 0x34c
                    0x034e                  ADC1BUF17 = 0x34e
                    0x034e                  _ADC1BUF17 = 0x34e
                    0x0350                  ADC1BUF18 = 0x350
                    0x0350                  _ADC1BUF18 = 0x350
                    0x0352                  ADC1BUF19 = 0x352
                    0x0352                  _ADC1BUF19 = 0x352
                    0x0354                  ADC1BUF1A = 0x354
                    0x0354                  _ADC1BUF1A = 0x354
                    0x0356                  ADC1BUF1B = 0x356
                    0x0356                  _ADC1BUF1B = 0x356
                    0x0358                  ADC1BUF1C = 0x358
                    0x0358                  _ADC1BUF1C = 0x358
                    0x035a                  ADC1BUF1D = 0x35a
                    0x035a                  _ADC1BUF1D = 0x35a
                    0x035c                  ADC1BUF1E = 0x35c
                    0x035c                  _ADC1BUF1E = 0x35c
                    0x035e                  ADC1BUF1F = 0x35e
                    0x035e                  _ADC1BUF1F = 0x35e
                    0x0480                  U1OTGIR = 0x480
                    0x0480                  _U1OTGIR = 0x480
                    0x0480                  _U1OTGIRbits = 0x480
                    0x0482                  U1OTGIE = 0x482
                    0x0482                  _U1OTGIE = 0x482
                    0x0482                  _U1OTGIEbits = 0x482
                    0x0484                  U1OTGSTAT = 0x484
                    0x0484                  _U1OTGSTAT = 0x484
                    0x0484                  _U1OTGSTATbits = 0x484
                    0x0486                  U1OTGCON = 0x486
                    0x0486                  _U1OTGCON = 0x486
                    0x0486                  _U1OTGCONbits = 0x486
                    0x0488                  U1PWRC = 0x488
                    0x0488                  _U1PWRC = 0x488
                    0x0488                  _U1PWRCbits = 0x488
                    0x048a                  U1IR = 0x48a
                    0x048a                  _U1IR = 0x48a
                    0x048a                  _U1IRbits = 0x48a
                    0x048c                  U1IE = 0x48c
                    0x048c                  _U1IE = 0x48c
                    0x048c                  _U1IEbits = 0x48c
                    0x048e                  U1EIR = 0x48e
                    0x048e                  _U1EIR = 0x48e
                    0x048e                  _U1EIRbits = 0x48e
                    0x0490                  U1EIE = 0x490
                    0x0490                  _U1EIE = 0x490
                    0x0490                  _U1EIEbits = 0x490
                    0x0492                  U1STAT = 0x492
                    0x0492                  _U1STAT = 0x492
                    0x0492                  _U1STATbits = 0x492
                    0x0494                  U1CON = 0x494
                    0x0494                  _U1CON = 0x494
                    0x0494                  _U1CONbits = 0x494
                    0x0496                  U1ADDR = 0x496
                    0x0496                  _U1ADDR = 0x496
                    0x0496                  _U1ADDRbits = 0x496
                    0x0498                  U1BDTP1 = 0x498
                    0x0498                  _U1BDTP1 = 0x498
                    0x0498                  _U1BDTP1bits = 0x498
                    0x049a                  U1FRML = 0x49a
                    0x049a                  _U1FRML = 0x49a
                    0x049a                  _U1FRMLbits = 0x49a
                    0x049c                  U1FRMH = 0x49c
                    0x049c                  _U1FRMH = 0x49c
                    0x049c                  _U1FRMHbits = 0x49c
                    0x049e                  U1TOK = 0x49e
                    0x049e                  _U1TOK = 0x49e
                    0x049e                  _U1TOKbits = 0x49e
                    0x04a0                  U1SOF = 0x4a0
                    0x04a0                  _U1SOF = 0x4a0
                    0x04a0                  _U1SOFbits = 0x4a0
                    0x04a6                  U1CNFG1 = 0x4a6
                    0x04a6                  _U1CNFG1 = 0x4a6
                    0x04a6                  _U1CNFG1bits = 0x4a6
                    0x04a8                  U1CNFG2 = 0x4a8
                    0x04a8                  _U1CNFG2 = 0x4a8
                    0x04a8                  _U1CNFG2bits = 0x4a8
                    0x04aa                  U1EP0 = 0x4aa
                    0x04aa                  _U1EP0 = 0x4aa
                    0x04aa                  _U1EP0bits = 0x4aa
                    0x04ac                  U1EP1 = 0x4ac
                    0x04ac                  _U1EP1 = 0x4ac
                    0x04ac                  _U1EP1bits = 0x4ac
                    0x04ae                  U1EP2 = 0x4ae
                    0x04ae                  _U1EP2 = 0x4ae
                    0x04ae                  _U1EP2bits = 0x4ae
                    0x04b0                  U1EP3 = 0x4b0
                    0x04b0                  _U1EP3 = 0x4b0
                    0x04b0                  _U1EP3bits = 0x4b0
                    0x04b2                  U1EP4 = 0x4b2
                    0x04b2                  _U1EP4 = 0x4b2
                    0x04b2                  _U1EP4bits = 0x4b2
                    0x04b4                  U1EP5 = 0x4b4
                    0x04b4                  _U1EP5 = 0x4b4
                    0x04b4                  _U1EP5bits = 0x4b4
                    0x04b6                  U1EP6 = 0x4b6
                    0x04b6                  _U1EP6 = 0x4b6
                    0x04b6                  _U1EP6bits = 0x4b6
                    0x04b8                  U1EP7 = 0x4b8
                    0x04b8                  _U1EP7 = 0x4b8
                    0x04b8                  _U1EP7bits = 0x4b8
                    0x04ba                  U1EP8 = 0x4ba
                    0x04ba                  _U1EP8 = 0x4ba
                    0x04ba                  _U1EP8bits = 0x4ba
                    0x04bc                  U1EP9 = 0x4bc
                    0x04bc                  _U1EP9 = 0x4bc
                    0x04bc                  _U1EP9bits = 0x4bc
                    0x04be                  U1EP10 = 0x4be
                    0x04be                  _U1EP10 = 0x4be
                    0x04be                  _U1EP10bits = 0x4be
                    0x04c0                  U1EP11 = 0x4c0
                    0x04c0                  _U1EP11 = 0x4c0
                    0x04c0                  _U1EP11bits = 0x4c0
                    0x04c2                  U1EP12 = 0x4c2
                    0x04c2                  _U1EP12 = 0x4c2
                    0x04c2                  _U1EP12bits = 0x4c2
                    0x04c4                  U1EP13 = 0x4c4
                    0x04c4                  _U1EP13 = 0x4c4
                    0x04c4                  _U1EP13bits = 0x4c4
                    0x04c6                  U1EP14 = 0x4c6
                    0x04c6                  _U1EP14 = 0x4c6
                    0x04c6                  _U1EP14bits = 0x4c6
                    0x04c8                  U1EP15 = 0x4c8
                    0x04c8                  _U1EP15 = 0x4c8
                    0x04c8                  _U1EP15bits = 0x4c8
                    0x04cc                  U1PWMRRS = 0x4cc
                    0x04cc                  _U1PWMRRS = 0x4cc
                    0x04cc                  _U1PWMRRSbits = 0x4cc
                    0x04ce                  U1PWMCON = 0x4ce
                    0x04ce                  _U1PWMCON = 0x4ce
                    0x04ce                  _U1PWMCONbits = 0x4ce
                    0x04de                  ANCFG = 0x4de
                    0x04de                  _ANCFG = 0x4de
                    0x04de                  _ANCFGbits = 0x4de
                    0x04e2                  ANSB = 0x4e2
                    0x04e2                  _ANSB = 0x4e2
                    0x04e2                  _ANSBbits = 0x4e2
                    0x04e4                  ANSC = 0x4e4
                    0x04e4                  _ANSC = 0x4e4
                    0x04e4                  _ANSCbits = 0x4e4
                    0x04e6                  ANSD = 0x4e6
                    0x04e6                  _ANSD = 0x4e6
                    0x04e6                  _ANSDbits = 0x4e6
                    0x04ea                  ANSF = 0x4ea
                    0x04ea                  _ANSF = 0x4ea
                    0x04ea                  _ANSFbits = 0x4ea
                    0x04ec                  ANSG = 0x4ec
                    0x04ec                  _ANSG = 0x4ec
                    0x04ec                  _ANSGbits = 0x4ec
                    0x0600                  PMCON1 = 0x600
                    0x0600                  _PMCON1 = 0x600
                    0x0600                  _PMCON1bits = 0x600
                    0x0602                  PMCON2 = 0x602
                    0x0602                  _PMCON2 = 0x602
                    0x0602                  _PMCON2bits = 0x602
                    0x0604                  PMCON3 = 0x604
                    0x0604                  _PMCON3 = 0x604
                    0x0604                  _PMCON3bits = 0x604
                    0x0606                  PMCON4 = 0x606
                    0x0606                  _PMCON4 = 0x606
                    0x0606                  _PMCON4bits = 0x606
                    0x0608                  PMCS1CF = 0x608
                    0x0608                  _PMCS1CF = 0x608
                    0x0608                  _PMCS1CFbits = 0x608
                    0x060a                  PMCS1BS = 0x60a
                    0x060a                  _PMCS1BS = 0x60a
                    0x060a                  _PMCS1BSbits = 0x60a
                    0x060c                  PMCS1MD = 0x60c
                    0x060c                  _PMCS1MD = 0x60c
                    0x060c                  _PMCS1MDbits = 0x60c
                    0x060e                  PMCS2CF = 0x60e
                    0x060e                  _PMCS2CF = 0x60e
                    0x060e                  _PMCS2CFbits = 0x60e
                    0x0610                  PMCS2BS = 0x610
                    0x0610                  _PMCS2BS = 0x610
                    0x0610                  _PMCS2BSbits = 0x610
                    0x0612                  PMCS2MD = 0x612
                    0x0612                  _PMCS2MD = 0x612
                    0x0612                  _PMCS2MDbits = 0x612
                    0x0614                  PMDOUT1 = 0x614
                    0x0614                  _PMDOUT1 = 0x614
                    0x0616                  PMDOUT2 = 0x616
                    0x0616                  _PMDOUT2 = 0x616
                    0x0618                  PMDIN1 = 0x618
                    0x0618                  _PMDIN1 = 0x618
                    0x061a                  PMDIN2 = 0x61a
                    0x061a                  _PMDIN2 = 0x61a
                    0x061c                  PMSTAT = 0x61c
                    0x061c                  _PMSTAT = 0x61c
                    0x061c                  _PMSTATbits = 0x61c
                    0x0620                  ALRMVAL = 0x620
                    0x0620                  _ALRMVAL = 0x620
                    0x0622                  ALCFGRPT = 0x622
                    0x0622                  _ALCFGRPT = 0x622
                    0x0622                  _ALCFGRPTbits = 0x622
                    0x0624                  RTCVAL = 0x624
                    0x0624                  _RTCVAL = 0x624
                    0x0626                  RCFGCAL = 0x626
                    0x0626                  _RCFGCAL = 0x626
                    0x0626                  _RCFGCALbits = 0x626
                    0x0630                  CMSTAT = 0x630
                    0x0630                  _CMSTAT = 0x630
                    0x0630                  _CMSTATbits = 0x630
                    0x0632                  CVRCON = 0x632
                    0x0632                  _CVRCON = 0x632
                    0x0632                  _CVRCONbits = 0x632
                    0x0634                  CM1CON = 0x634
                    0x0634                  _CM1CON = 0x634
                    0x0634                  _CM1CONbits = 0x634
                    0x0636                  CM2CON = 0x636
                    0x0636                  _CM2CON = 0x636
                    0x0636                  _CM2CONbits = 0x636
                    0x0638                  CM3CON = 0x638
                    0x0638                  _CM3CON = 0x638
                    0x0638                  _CM3CONbits = 0x638
                    0x0640                  CRCCON1 = 0x640
                    0x0640                  _CRCCON1 = 0x640
                    0x0640                  _CRCCON1bits = 0x640
                    0x0642                  CRCCON2 = 0x642
                    0x0642                  _CRCCON2 = 0x642
                    0x0642                  _CRCCON2bits = 0x642
                    0x0644                  CRCXORL = 0x644
                    0x0644                  _CRCXORL = 0x644
                    0x0644                  _CRCXORLbits = 0x644
                    0x0646                  CRCXORH = 0x646
                    0x0646                  _CRCXORH = 0x646
                    0x0646                  _CRCXORHbits = 0x646
                    0x0648                  CRCDATL = 0x648
                    0x0648                  _CRCDATL = 0x648
                    0x064a                  CRCDATH = 0x64a
                    0x064a                  _CRCDATH = 0x64a
                    0x064c                  CRCWDATL = 0x64c
                    0x064c                  _CRCWDATL = 0x64c
                    0x064e                  CRCWDATH = 0x64e
                    0x064e                  _CRCWDATH = 0x64e
                    0x0680                  RPINR0 = 0x680
                    0x0680                  _RPINR0 = 0x680
                    0x0680                  _RPINR0bits = 0x680
                    0x0682                  RPINR1 = 0x682
                    0x0682                  _RPINR1 = 0x682
                    0x0682                  _RPINR1bits = 0x682
                    0x0684                  RPINR2 = 0x684
                    0x0684                  _RPINR2 = 0x684
                    0x0684                  _RPINR2bits = 0x684
                    0x0686                  RPINR3 = 0x686
                    0x0686                  _RPINR3 = 0x686
                    0x0686                  _RPINR3bits = 0x686
                    0x0688                  RPINR4 = 0x688
                    0x0688                  _RPINR4 = 0x688
                    0x0688                  _RPINR4bits = 0x688
                    0x068e                  RPINR7 = 0x68e
                    0x068e                  _RPINR7 = 0x68e
                    0x068e                  _RPINR7bits = 0x68e
                    0x0690                  RPINR8 = 0x690
                    0x0690                  _RPINR8 = 0x690
                    0x0690                  _RPINR8bits = 0x690
                    0x0692                  RPINR9 = 0x692
                    0x0692                  _RPINR9 = 0x692
                    0x0692                  _RPINR9bits = 0x692
                    0x0694                  RPINR10 = 0x694
                    0x0694                  _RPINR10 = 0x694
                    0x0694                  _RPINR10bits = 0x694
                    0x0696                  RPINR11 = 0x696
                    0x0696                  _RPINR11 = 0x696
                    0x0696                  _RPINR11bits = 0x696
                    0x069e                  RPINR15 = 0x69e
                    0x069e                  _RPINR15 = 0x69e
                    0x069e                  _RPINR15bits = 0x69e
                    0x06a2                  RPINR17 = 0x6a2
                    0x06a2                  _RPINR17 = 0x6a2
                    0x06a2                  _RPINR17bits = 0x6a2
                    0x06a4                  RPINR18 = 0x6a4
                    0x06a4                  _RPINR18 = 0x6a4
                    0x06a4                  _RPINR18bits = 0x6a4
                    0x06a6                  RPINR19 = 0x6a6
                    0x06a6                  _RPINR19 = 0x6a6
                    0x06a6                  _RPINR19bits = 0x6a6
                    0x06a8                  RPINR20 = 0x6a8
                    0x06a8                  _RPINR20 = 0x6a8
                    0x06a8                  _RPINR20bits = 0x6a8
                    0x06aa                  RPINR21 = 0x6aa
                    0x06aa                  _RPINR21 = 0x6aa
                    0x06aa                  _RPINR21bits = 0x6aa
                    0x06ac                  RPINR22 = 0x6ac
                    0x06ac                  _RPINR22 = 0x6ac
                    0x06ac                  _RPINR22bits = 0x6ac
                    0x06ae                  RPINR23 = 0x6ae
                    0x06ae                  _RPINR23 = 0x6ae
                    0x06ae                  _RPINR23bits = 0x6ae
                    0x06b6                  RPINR27 = 0x6b6
                    0x06b6                  _RPINR27 = 0x6b6
                    0x06b6                  _RPINR27bits = 0x6b6
                    0x06b8                  RPINR28 = 0x6b8
                    0x06b8                  _RPINR28 = 0x6b8
                    0x06b8                  _RPINR28bits = 0x6b8
                    0x06ba                  RPINR29 = 0x6ba
                    0x06ba                  _RPINR29 = 0x6ba
                    0x06ba                  _RPINR29bits = 0x6ba
                    0x06c0                  RPOR0 = 0x6c0
                    0x06c0                  _RPOR0 = 0x6c0
                    0x06c0                  _RPOR0bits = 0x6c0
                    0x06c2                  RPOR1 = 0x6c2
                    0x06c2                  _RPOR1 = 0x6c2
                    0x06c2                  _RPOR1bits = 0x6c2
                    0x06c4                  RPOR2 = 0x6c4
                    0x06c4                  _RPOR2 = 0x6c4
                    0x06c4                  _RPOR2bits = 0x6c4
                    0x06c6                  RPOR3 = 0x6c6
                    0x06c6                  _RPOR3 = 0x6c6
                    0x06c6                  _RPOR3bits = 0x6c6
                    0x06c8                  RPOR4 = 0x6c8
                    0x06c8                  _RPOR4 = 0x6c8
                    0x06c8                  _RPOR4bits = 0x6c8
                    0x06ca                  RPOR5 = 0x6ca
                    0x06ca                  _RPOR5 = 0x6ca
                    0x06ca                  _RPOR5bits = 0x6ca
                    0x06cc                  RPOR6 = 0x6cc
                    0x06cc                  _RPOR6 = 0x6cc
                    0x06cc                  _RPOR6bits = 0x6cc
                    0x06ce                  RPOR7 = 0x6ce
                    0x06ce                  _RPOR7 = 0x6ce
                    0x06ce                  _RPOR7bits = 0x6ce
                    0x06d0                  RPOR8 = 0x6d0
                    0x06d0                  _RPOR8 = 0x6d0
                    0x06d0                  _RPOR8bits = 0x6d0
                    0x06d2                  RPOR9 = 0x6d2
                    0x06d2                  _RPOR9 = 0x6d2
                    0x06d2                  _RPOR9bits = 0x6d2
                    0x06d4                  RPOR10 = 0x6d4
                    0x06d4                  _RPOR10 = 0x6d4
                    0x06d4                  _RPOR10bits = 0x6d4
                    0x06d6                  RPOR11 = 0x6d6
                    0x06d6                  _RPOR11 = 0x6d6
                    0x06d6                  _RPOR11bits = 0x6d6
                    0x06d8                  RPOR12 = 0x6d8
                    0x06d8                  _RPOR12 = 0x6d8
                    0x06d8                  _RPOR12bits = 0x6d8
                    0x06da                  RPOR13 = 0x6da
                    0x06da                  _RPOR13 = 0x6da
                    0x06da                  _RPOR13bits = 0x6da
                    0x06dc                  RPOR14 = 0x6dc
                    0x06dc                  _RPOR14 = 0x6dc
                    0x06dc                  _RPOR14bits = 0x6dc
                    0x0740                  RCON = 0x740
                    0x0740                  _RCON = 0x740
                    0x0740                  _RCONbits = 0x740
                    0x0742                  OSCCON = 0x742
                    0x0742                  _OSCCON = 0x742
                    0x0742                  _OSCCONbits = 0x742
                    0x0742                  OSCCONL = 0x742
                    0x0742                  _OSCCONL = 0x742
                    0x0743                  OSCCONH = 0x743
                    0x0743                  _OSCCONH = 0x743
                    0x0744                  CLKDIV = 0x744
                    0x0744                  _CLKDIV = 0x744
                    0x0744                  _CLKDIVbits = 0x744
                    0x0748                  OSCTUN = 0x748
                    0x0748                  _OSCTUN = 0x748
                    0x0748                  _OSCTUNbits = 0x748
                    0x074e                  REFOCON = 0x74e
                    0x074e                  _REFOCON = 0x74e
                    0x074e                  _REFOCONbits = 0x74e
                    0x0760                  NVMCON = 0x760
                    0x0760                  _NVMCON = 0x760
                    0x0760                  _NVMCONbits = 0x760
                    0x0766                  NVMKEY = 0x766
                    0x0766                  _NVMKEY = 0x766
                    0x0770                  PMD1 = 0x770
                    0x0770                  _PMD1 = 0x770
                    0x0770                  _PMD1bits = 0x770
                    0x0772                  PMD2 = 0x772
                    0x0772                  _PMD2 = 0x772
                    0x0772                  _PMD2bits = 0x772
                    0x0774                  PMD3 = 0x774
                    0x0774                  _PMD3 = 0x774
                    0x0774                  _PMD3bits = 0x774
                    0x0776                  PMD4 = 0x776
                    0x0776                  _PMD4 = 0x776
                    0x0776                  _PMD4bits = 0x776
                    0x0778                  PMD5 = 0x778
                    0x0778                  _PMD5 = 0x778
                    0x0778                  _PMD5bits = 0x778
                    0x077a                  PMD6 = 0x77a
                    0x077a                  _PMD6 = 0x77a
                    0x077a                  _PMD6bits = 0x77a
                    0x0144                  IC1 = 0x144
                    0x0144                  _IC1 = 0x144
                    0x014c                  IC2 = 0x14c
                    0x014c                  _IC2 = 0x14c
                    0x0154                  IC3 = 0x154
                    0x0154                  _IC3 = 0x154
                    0x015c                  IC4 = 0x15c
                    0x015c                  _IC4 = 0x15c
                    0x0164                  IC5 = 0x164
                    0x0164                  _IC5 = 0x164
                    0x016c                  IC6 = 0x16c
                    0x016c                  _IC6 = 0x16c
                    0x0174                  IC7 = 0x174
                    0x0174                  _IC7 = 0x174
                    0x017c                  IC8 = 0x17c
                    0x017c                  _IC8 = 0x17c
                    0x0194                  OC1 = 0x194
                    0x0194                  _OC1 = 0x194
                    0x019e                  OC2 = 0x19e
                    0x019e                  _OC2 = 0x19e
                    0x01a8                  OC3 = 0x1a8
                    0x01a8                  _OC3 = 0x1a8
                    0x01b2                  OC4 = 0x1b2
                    0x01b2                  _OC4 = 0x1b2
                    0x01bc                  OC5 = 0x1bc
                    0x01bc                  _OC5 = 0x1bc
                    0x01c6                  OC6 = 0x1c6
                    0x01c6                  _OC6 = 0x1c6
                    0x01d0                  OC7 = 0x1d0
                    0x01d0                  _OC7 = 0x1d0
                    0x01da                  OC8 = 0x1da
                    0x01da                  _OC8 = 0x1da
                    0x0240                  SPI1 = 0x240
                    0x0240                  _SPI1 = 0x240
                    0x0260                  SPI2 = 0x260
                    0x0260                  _SPI2 = 0x260
                    0x0220                  UART1 = 0x220
                    0x0220                  _UART1 = 0x220
                    0x0230                  UART2 = 0x230
                    0x0230                  _UART2 = 0x230
                    0x0001                  __MPLAB_BUILD = 0x1
LOAD c:/program files (x86)/microchip/mplab c30/bin/bin/../../lib\libpic30-coff.a
LOAD c:/program files (x86)/microchip/mplab c30/bin/bin/../../lib\libc-coff.a
LOAD c:/program files (x86)/microchip/mplab c30/bin/bin/../../lib\libm-coff.a
START GROUP
LOAD c:/program files (x86)/microchip/mplab c30/bin/bin/../../lib\libpic30-coff.a
LOAD c:/program files (x86)/microchip/mplab c30/bin/bin/../../lib\libm-coff.a
LOAD c:/program files (x86)/microchip/mplab c30/bin/bin/../../lib\libc-coff.a
END GROUP
OUTPUT(C:\Users\Stefano\Desktop\hack_stretching_monitor\Obj\a.cof coff-pic30)
LOAD jump_table
LOAD data_init

__c30_signature
                  0x000000        0x3d8
 __c30_signature
                  0x000000          0x6 Announce.o
 __c30_signature
                  0x000006          0x6 ARCFOUR.o
 __c30_signature
                  0x00000c          0x6 ARP.o
 __c30_signature
                  0x000012          0x6 ARPlib.o
 __c30_signature
                  0x000018          0x6 BigInt.o
 __c30_signature
                  0x00001e          0x6 Delay.o
 __c30_signature
                  0x000024          0x6 DHCP.o
 __c30_signature
                  0x00002a          0x6 DHCPs.o
 __c30_signature
                  0x000030          0x6 DNS.o
 __c30_signature
                  0x000036          0x6 DNSs.o
 __c30_signature
                  0x00003c          0x6 DynDNS.o
 __c30_signature
                  0x000042          0x6 ENCX24J600.o
 __c30_signature
                  0x000048          0x6 FTP.o
 __c30_signature
                  0x00004e          0x6 FTPlib.o
 __c30_signature
                  0x000054          0x6 Hashes.o
 __c30_signature
                  0x00005a          0x6 heap_2.o
 __c30_signature
                  0x000060          0x6 Helpers.o
 __c30_signature
                  0x000066          0x6 HTTP2.o
 __c30_signature
                  0x00006c          0x6 HTTPApp.o
 __c30_signature
                  0x000072          0x6 HWInit.o
 __c30_signature
                  0x000078          0x6 HWlib.o
 __c30_signature
                  0x00007e          0x6 ICMP.o
 __c30_signature
                  0x000084          0x6 INTlib.o
 __c30_signature
                  0x00008a          0x6 IP.o
 __c30_signature
                  0x000090          0x6 ISRs.o
 __c30_signature
                  0x000096          0x6 list.o
 __c30_signature
                  0x00009c          0x6 Main.o
 __c30_signature
                  0x0000a2          0x6 MPFS2.o
 __c30_signature
                  0x0000a8          0x6 NBNS.o
 __c30_signature
                  0x0000ae          0x6 NETlib.o
 __c30_signature
                  0x0000b4          0x6 port.o
 __c30_signature
                  0x0000ba          0x6 queue.o
 __c30_signature
                  0x0000c0          0x6 Random.o
 __c30_signature
                  0x0000c6          0x6 Reboot.o
 __c30_signature
                  0x0000cc          0x6 Regs.o
 __c30_signature
                  0x0000d2          0x6 RSA.o
 __c30_signature
                  0x0000d8          0x6 RTCClib.o
 __c30_signature
                  0x0000de          0x6 SMTP.o
 __c30_signature
                  0x0000e4          0x6 SMTPlib.o
 __c30_signature
                  0x0000ea          0x6 SNTP.o
 __c30_signature
                  0x0000f0          0x6 SPIFlash.o
 __c30_signature
                  0x0000f6          0x6 SSL.o
 __c30_signature
                  0x0000fc          0x6 StackTsk.o
 __c30_signature
                  0x000102          0x6 taskFlyport.o
 __c30_signature
                  0x000108          0x6 tasks.o
 __c30_signature
                  0x00010e          0x6 TCP.o
 __c30_signature
                  0x000114          0x6 TCPIP_Utils.o
 __c30_signature
                  0x00011a          0x6 TCPlib.o
 __c30_signature
                  0x000120          0x6 Tick.o
 __c30_signature
                  0x000126          0x6 UDP.o
 __c30_signature
                  0x00012c          0x6 UDPlib.o
 __c30_signature
                  0x000132          0x6 WFConnectionAlgorithm.o
 __c30_signature
                  0x000138          0x6 WFConnectionManager.o
 __c30_signature
                  0x00013e          0x6 WFConnectionProfile.o
 __c30_signature
                  0x000144          0x6 WFDataTxRx.o
 __c30_signature
                  0x00014a          0x6 WFDebugStrings.o
 __c30_signature
                  0x000150          0x6 WFDriverCom.o
 __c30_signature
                  0x000156          0x6 WFDriverCom_24G.o
 __c30_signature
                  0x00015c          0x6 WFDriverRaw.o
 __c30_signature
                  0x000162          0x6 WFDriverRaw_24G.o
 __c30_signature
                  0x000168          0x6 WFEventHandler.o
 __c30_signature
                  0x00016e          0x6 WFInit.o
 __c30_signature
                  0x000174          0x6 WFMac.o
 __c30_signature
                  0x00017a          0x6 WFMac_24G.o
 __c30_signature
                  0x000180          0x6 WFMgmtMsg.o
 __c30_signature
                  0x000186          0x6 WFMgmtMsg_24G.o
 __c30_signature
                  0x00018c          0x6 WFParamMsg.o
 __c30_signature
                  0x000192          0x6 WFParamMsg_24G.o
 __c30_signature
                  0x000198          0x6 WFPowerSave.o
 __c30_signature
                  0x00019e          0x6 WFScan.o
 __c30_signature
                  0x0001a4          0x6 WFTxPower.o
 __c30_signature
                  0x0001aa          0x6 WF_Config.o
 __c30_signature
                  0x0001b0          0x6 WF_Eint.o
 __c30_signature
                  0x0001b6          0x6 WF_Events.o
 __c30_signature
                  0x0001bc          0x6 WF_Spi.o
 __c30_signature
                  0x0001c2          0x6 WF_Utils.o
 __c30_signature
                  0x0001c8          0x6 x_analog_in-pro.o
 __c30_signature
                  0x0001ce          0x6 x_digital_io-pro.o
 __c30_signature
                  0x0001d4          0x6 x_groveboard-pro.o
 __c30_signature
                  0x0001da          0x6 x_grovelib-pro.o
 __c30_signature
                  0x0001e0          0x6 x_HTTPlib.o
 __c30_signature
                  0x0001e6          0x6 x_i2c_devices-pro.o
 __c30_signature
                  0x0001ec          0x6 x_input_capture.o
 __c30_signature
                  0x0001f2          0x6 x_sonic_ranger.o
 __c30_signature
                  0x0001f8          0x6 ZeroconfHelper.o
 __c30_signature
                  0x0001fe          0x6 ZeroconfLinkLocal.o
 __c30_signature
                  0x000204          0x6 ZeroconfMulticastDNS.o
 __c30_signature
                  0x00020a          0x6 c:/program files (x86)/microchip/mplab c30/bin/bin/../../lib\libpic30-coff.a(crt0_extended.o)
 __c30_signature
                  0x000210          0x6 c:/program files (x86)/microchip/mplab c30/bin/bin/../../lib\libpic30-coff.a(c30_uart.o)
 __c30_signature
                  0x000216          0x6 c:/program files (x86)/microchip/mplab c30/bin/bin/../../lib\libpic30-coff.a(flash_helper.o)
 __c30_signature
                  0x00021c          0x6 c:/program files (x86)/microchip/mplab c30/bin/bin/../../lib\libpic30-coff.a(data_init_extended.o)
 __c30_signature
                  0x000222          0x6 c:/program files (x86)/microchip/mplab c30/bin/bin/../../lib\libc-coff.a(memset.o)
 __c30_signature
                  0x000228          0x6 c:/program files (x86)/microchip/mplab c30/bin/bin/../../lib\libc-coff.a(strtok.o)
 __c30_signature
                  0x00022e          0x6 c:/program files (x86)/microchip/mplab c30/bin/bin/../../lib\libc-coff.a(strcpy.o)
 __c30_signature
                  0x000234          0x6 c:/program files (x86)/microchip/mplab c30/bin/bin/../../lib\libc-coff.a(strlen.o)
 __c30_signature
                  0x00023a          0x6 c:/program files (x86)/microchip/mplab c30/bin/bin/../../lib\libc-coff.a(strcat.o)
 __c30_signature
                  0x000240          0x6 c:/program files (x86)/microchip/mplab c30/bin/bin/../../lib\libc-coff.a(xstoul.o)
 __c30_signature
                  0x000246          0x6 c:/program files (x86)/microchip/mplab c30/bin/bin/../../lib\libc-coff.a(strcmp.o)
 __c30_signature
                  0x00024c          0x6 c:/program files (x86)/microchip/mplab c30/bin/bin/../../lib\libc-coff.a(rand.o)
 __c30_signature
                  0x000252          0x6 c:/program files (x86)/microchip/mplab c30/bin/bin/../../lib\libc-coff.a(srand.o)
 __c30_signature
                  0x000258          0x6 c:/program files (x86)/microchip/mplab c30/bin/bin/../../lib\libc-coff.a(memcmp.o)
 __c30_signature
                  0x00025e          0x6 c:/program files (x86)/microchip/mplab c30/bin/bin/../../lib\libc-coff.a(memcpy.o)
 __c30_signature
                  0x000264          0x6 c:/program files (x86)/microchip/mplab c30/bin/bin/../../lib\libc-coff.a(strchr.o)
 __c30_signature
                  0x00026a          0x6 c:/program files (x86)/microchip/mplab c30/bin/bin/../../lib\libc-coff.a(strstr.o)
 __c30_signature
                  0x000270          0x6 c:/program files (x86)/microchip/mplab c30/bin/bin/../../lib\libc-coff.a(sprintf.o)
 __c30_signature
                  0x000276          0x6 c:/program files (x86)/microchip/mplab c30/bin/bin/../../lib\libc-coff.a(strncpy.o)
 __c30_signature
                  0x00027c          0x6 c:/program files (x86)/microchip/mplab c30/bin/bin/../../lib\libc-coff.a(free.o)
 __c30_signature
                  0x000282          0x6 c:/program files (x86)/microchip/mplab c30/bin/bin/../../lib\libc-coff.a(malloc.o)
 __c30_signature
                  0x000288          0x6 c:/program files (x86)/microchip/mplab c30/bin/bin/../../lib\libc-coff.a(calloc.o)
 __c30_signature
                  0x00028e          0x6 c:/program files (x86)/microchip/mplab c30/bin/bin/../../lib\libc-coff.a(strspn.o)
 __c30_signature
                  0x000294          0x6 c:/program files (x86)/microchip/mplab c30/bin/bin/../../lib\libc-coff.a(strcspn.o)
 __c30_signature
                  0x00029a          0x6 c:/program files (x86)/microchip/mplab c30/bin/bin/../../lib\libc-coff.a(memchr.o)
 __c30_signature
                  0x0002a0          0x6 c:/program files (x86)/microchip/mplab c30/bin/bin/../../lib\libc-coff.a(errno.o)
 __c30_signature
                  0x0002a6          0x6 c:/program files (x86)/microchip/mplab c30/bin/bin/../../lib\libc-coff.a(xprintf.o)
 __c30_signature
                  0x0002ac          0x6 c:/program files (x86)/microchip/mplab c30/bin/bin/../../lib\libc-coff.a(xgetmem.o)
 __c30_signature
                  0x0002b2          0x6 c:/program files (x86)/microchip/mplab c30/bin/bin/../../lib\libc-coff.a(xvacopy.o)
 __c30_signature
                  0x0002b8          0x6 c:/program files (x86)/microchip/mplab c30/bin/bin/../../lib\libc-coff.a(xputtxt.o)
 __c30_signature
                  0x0002be          0x6 c:/program files (x86)/microchip/mplab c30/bin/bin/../../lib\libc-coff.a(xputfld.o)
 __c30_signature
                  0x0002c4          0x6 c:/program files (x86)/microchip/mplab c30/bin/bin/../../lib\libc-coff.a(xlitob.o)
 __c30_signature
                  0x0002ca          0x6 c:/program files (x86)/microchip/mplab c30/bin/bin/../../lib\libc-coff.a(xldtob.o)
 __c30_signature
                  0x0002d0          0x6 c:/program files (x86)/microchip/mplab c30/bin/bin/../../lib\libc-coff.a(xldunsca.o)
 __c30_signature
                  0x0002d6          0x6 c:/program files (x86)/microchip/mplab c30/bin/bin/../../lib\libc-coff.a(xldscale.o)
 __c30_signature
                  0x0002dc          0x6 c:/program files (x86)/microchip/mplab c30/bin/bin/../../lib\libc-coff.a(ldiv.o)
 __c30_signature
                  0x0002e2          0x6 c:/program files (x86)/microchip/mplab c30/bin/bin/../../lib\libc-coff.a(xgenld.o)
 __c30_signature
                  0x0002e8          0x6 c:/program files (x86)/microchip/mplab c30/bin/bin/../../lib\libc-coff.a(xdnorm.o)
 __c30_signature
                  0x0002ee          0x6 c:/program files (x86)/microchip/mplab c30/bin/bin/../../lib\libc-coff.a(div.o)
 __c30_signature
                  0x0002f4          0x6 c:/program files (x86)/microchip/mplab c30/bin/bin/../../lib\libm-coff.a(udivsi3.o)
 __c30_signature
                  0x0002fa          0x6 c:/program files (x86)/microchip/mplab c30/bin/bin/../../lib\libm-coff.a(divsf3.o)
 __c30_signature
                  0x000300          0x6 c:/program files (x86)/microchip/mplab c30/bin/bin/../../lib\libm-coff.a(fgtge.o)
 __c30_signature
                  0x000306          0x6 c:/program files (x86)/microchip/mplab c30/bin/bin/../../lib\libm-coff.a(fixunssfsi.o)
 __c30_signature
                  0x00030c          0x6 c:/program files (x86)/microchip/mplab c30/bin/bin/../../lib\libm-coff.a(floatsisf.o)
 __c30_signature
                  0x000312          0x6 c:/program files (x86)/microchip/mplab c30/bin/bin/../../lib\libm-coff.a(addsf3.o)
 __c30_signature
                  0x000318          0x6 c:/program files (x86)/microchip/mplab c30/bin/bin/../../lib\libm-coff.a(mulsf3.o)
 __c30_signature
                  0x00031e          0x6 c:/program files (x86)/microchip/mplab c30/bin/bin/../../lib\libm-coff.a(fne.o)
 __c30_signature
                  0x000324          0x6 c:/program files (x86)/microchip/mplab c30/bin/bin/../../lib\libm-coff.a(feqltle.o)
 __c30_signature
                  0x00032a          0x6 c:/program files (x86)/microchip/mplab c30/bin/bin/../../lib\libm-coff.a(divmoddi3.o)
 __c30_signature
                  0x000330          0x6 c:/program files (x86)/microchip/mplab c30/bin/bin/../../lib\libm-coff.a(muldi3.o)
 __c30_signature
                  0x000336          0x6 c:/program files (x86)/microchip/mplab c30/bin/bin/../../lib\libm-coff.a(mulsi3.o)
 __c30_signature
                  0x00033c          0x6 c:/program files (x86)/microchip/mplab c30/bin/bin/../../lib\libm-coff.a(extendsfdf.o)
 __c30_signature
                  0x000342          0x6 c:/program files (x86)/microchip/mplab c30/bin/bin/../../lib\libm-coff.a(umodsi3.o)
 __c30_signature
                  0x000348          0x6 c:/program files (x86)/microchip/mplab c30/bin/bin/../../lib\libm-coff.a(divsi3.o)
 __c30_signature
                  0x00034e          0x6 c:/program files (x86)/microchip/mplab c30/bin/bin/../../lib\libm-coff.a(deqltle.o)
 __c30_signature
                  0x000354          0x6 c:/program files (x86)/microchip/mplab c30/bin/bin/../../lib\libm-coff.a(fixdfsi.o)
 __c30_signature
                  0x00035a          0x6 c:/program files (x86)/microchip/mplab c30/bin/bin/../../lib\libm-coff.a(floatsidf.o)
 __c30_signature
                  0x000360          0x6 c:/program files (x86)/microchip/mplab c30/bin/bin/../../lib\libm-coff.a(subdf3.o)
 __c30_signature
                  0x000366          0x6 c:/program files (x86)/microchip/mplab c30/bin/bin/../../lib\libm-coff.a(dgtge.o)
 __c30_signature
                  0x00036c          0x6 c:/program files (x86)/microchip/mplab c30/bin/bin/../../lib\libm-coff.a(muldf3.o)
 __c30_signature
                  0x000372          0x6 c:/program files (x86)/microchip/mplab c30/bin/bin/../../lib\libm-coff.a(divdf3.o)
 __c30_signature
                  0x000378          0x6 c:/program files (x86)/microchip/mplab c30/bin/bin/../../lib\libm-coff.a(funpack2.o)
 __c30_signature
                  0x00037e          0x6 c:/program files (x86)/microchip/mplab c30/bin/bin/../../lib\libm-coff.a(futil.o)
 __c30_signature
                  0x000384          0x6 c:/program files (x86)/microchip/mplab c30/bin/bin/../../lib\libm-coff.a(fpack.o)
 __c30_signature
                  0x00038a          0x6 c:/program files (x86)/microchip/mplab c30/bin/bin/../../lib\libm-coff.a(fcompare.o)
 __c30_signature
                  0x000390          0x6 c:/program files (x86)/microchip/mplab c30/bin/bin/../../lib\libm-coff.a(funpack.o)
 __c30_signature
                  0x000396          0x6 c:/program files (x86)/microchip/mplab c30/bin/bin/../../lib\libm-coff.a(umuldi3.o)
 __c30_signature
                  0x00039c          0x6 c:/program files (x86)/microchip/mplab c30/bin/bin/../../lib\libm-coff.a(dcompare.o)
 __c30_signature
                  0x0003a2          0x6 c:/program files (x86)/microchip/mplab c30/bin/bin/../../lib\libm-coff.a(dunpack.o)
 __c30_signature
                  0x0003a8          0x6 c:/program files (x86)/microchip/mplab c30/bin/bin/../../lib\libm-coff.a(dunpack2.o)
 __c30_signature
                  0x0003ae          0x6 c:/program files (x86)/microchip/mplab c30/bin/bin/../../lib\libm-coff.a(floatdidf.o)
 __c30_signature
                  0x0003b4          0x6 c:/program files (x86)/microchip/mplab c30/bin/bin/../../lib\libm-coff.a(adddf3.o)
 __c30_signature
                  0x0003ba          0x6 c:/program files (x86)/microchip/mplab c30/bin/bin/../../lib\libm-coff.a(dpack.o)
 __c30_signature
                  0x0003c0          0x6 c:/program files (x86)/microchip/mplab c30/bin/bin/../../lib\libm-coff.a(dtype.o)
 __c30_signature
                  0x0003c6          0x6 c:/program files (x86)/microchip/mplab c30/bin/bin/../../lib\libm-coff.a(dpropagateNaN.o)
 __c30_signature
                  0x0003cc          0x6 c:/program files (x86)/microchip/mplab c30/bin/bin/../../lib\libpic30-coff.a(sbrk.o)
 __c30_signature
                  0x0003d2          0x6 c:/program files (x86)/microchip/mplab c30/bin/bin/../../lib\libpic30-coff.a(brk.o)

BigInt_helper_vars
                    0x0800          0xc
 BigInt_helper_vars
                    0x0800          0xc BigInt_helper.o
                    0x0800                  _iA
                    0x0802                  _xA
                    0x0804                  _iB
                    0x0806                  _xB
                    0x0808                  _iR
                    0x080a                  _wC

.bss                0x080c       0x21ca
 .bss               0x080c       0x177a heap_2.o
 .bss               0x1f86        0x628 taskFlyport.o
                    0x1f86                  XivelyAPIKey
                    0x2080                  XivelyFeedID
                    0x217a                  dbg_string
                    0x2274                  state
                    0x2275                  myData
                    0x2351                  resp_Body
                    0x23e7                  resp_Header
                    0x247d                  cusHeader
                    0x2545                  cusPath
                    0x25aa                  ranger
                    0x25ac                  ee_i_d
 .bss               0x25ae        0x428 Main.o
                    0x260c                  AppConfig
                    0x26b6                  xIPAddress
                    0x271a                  xWord
                    0x271c                  xChar
                    0x271e                  xByte
                    0x2720                  xByte2
                    0x2721                  xByte3
                    0x2722                  xInt
                    0x2724                  xInt2
                    0x2726                  xNode
                    0x2730                  xQueue
                    0x2732                  BUFFER_UDP_LEN
                    0x2734                  udpBuffer
                    0x2736                  udpRxLenGlobal
                    0x2738                  udpSocket
                    0x273a                  xUDPPort
                    0x273c                  p_udp_data
                    0x273e                  p_udp_wifiram
                    0x2740                  xUDPRemoteHost
                    0x2744                  udpWord
                    0x2746                  udpInt
                    0x2748                  udpByte
                    0x274a                  UDPoverflowFlag
                    0x274c                  NETConf
                    0x28a0                  WFStatusold
                    0x28a2                  xNet
                    0x28d0                  udpRxLen
                    0x28d2                  udpBuffer1
                    0x29cc                  tmp_len
                    0x29ce                  hTCPIPTask
                    0x29d0                  hFlyTask
                    0x29d2                  hTimerTask
                    0x29d4                  xStatus

.data               0x29d6        0x3ec
 .data              0x29d6        0x3ec Regs.o
                    0x29d6                  LATs
                    0x2a26                  TRISs
                    0x2a76                  PORTs
                    0x2ac6                  CNPUs
                    0x2b16                  CNPDs
                    0x2b66                  CNPos
                    0x2bb6                  IOPos
                    0x2c06                  an
                    0x2c1a                  UMODEs
                    0x2c22                  USTAs
                    0x2c2a                  UBRGs
                    0x2c32                  UIFSs
                    0x2c3a                  UIECs
                    0x2c42                  UTXREGs
                    0x2c4a                  URXREGs
                    0x2c52                  UTXIPos
                    0x2c5a                  URXIPos
                    0x2c62                  AD1CONF1
                    0x2c64                  AD1CONF2
                    0x2c66                  AD1CONF3
                    0x2c68                  AD1CH
                    0x2c6a                  AD1CSL
                    0x2c6c                  OCCON1s
                    0x2c7e                  OCCON2s
                    0x2c90                  OCRs
                    0x2ca2                  OCRSs
                    0x2cb4                  RPORs
                    0x2d04                  RPFunc
                    0x2d1a                  RPIORPin
                    0x2d6a                  TCONs
                    0x2d74                  OCM
                    0x2d86                  RPIRs
                    0x2da4                  RPIRPos

.bss                0x2dc2        0x528
 .bss               0x2dc2        0x3ac HWlib.o
                    0x3164                  TimerOn
 .bss               0x316e        0x17c HTTPApp.o
                    0x31f0                  String_post

.data               0x32ea        0x16a
 .data              0x32ea        0x16a WFDebugStrings.o
                    0x32ea                  connectionFailureStrings
                    0x3312                  channelList_softAP_redirect
                    0x3312                  connectionLostStrings
                    0x331e                  deauthDisssocReasonCodes
                    0x3350                  statusCodes
                    0x33b0                  wpsState
                    0x33ce                  wpsConfigErr
                    0x3424                  moduleName

.bss                0x3454        0x416
 .bss               0x3454        0x106 TCP.o
 .bss               0x355a         0xcc UDP.o
                    0x3560                  UDPSocketInfo
                    0x3620                  activeUDPSocket
                    0x3622                  UDPTxCount
                    0x3624                  UDPRxCount
 .bss               0x3626         0x8c HTTP2.o
                    0x3626                  curHTTP
                    0x36a8                  httpStubs
                    0x36b0                  curHTTPID
 .bss               0x36b2         0x88 c:/program files (x86)/microchip/mplab c30/bin/bin/../../lib\libc-coff.a(rand.o)
 .bss               0x373a         0x74 tasks.o
 .bss               0x37ae         0x6c MPFS2.o
 .bss               0x381a         0x50 Regs.o
                    0x381a                  IOMode

.data               0x386a         0x92
 .data              0x386a         0x4a c:/program files (x86)/microchip/mplab c30/bin/bin/../../lib\libc-coff.a(xstoul.o)
 .data              0x38b4         0x48 c:/program files (x86)/microchip/mplab c30/bin/bin/../../lib\libc-coff.a(xldtob.o)

.bss                0x38fc         0x40
 .bss               0x38fc         0x40 Hashes.o
                    0x38fc                  lastBlock

.data               0x393c         0x40
 .data              0x393c         0x40 taskFlyport.o
                    0x393c                  XivelyServer
                    0x394b                  XivelyPort
                    0x394e                  XivelyClient
                    0x3950                  ParamSet
                    0x3952                  distance
                    0x3956                  distance_zero
                    0x395a                  starttime
                    0x395e                  time
                    0x3962                  btt_time
                    0x3966                  btt_time_0
                    0x396a                  btt_time_1
                    0x396e                  timeout
                    0x3970                  resp_code
                    0x3972                  len
                    0x3974                  seconds
                    0x3976                  afterseconds
                    0x3978                  cnt_ee_i
                    0x397a                  cnt_ee_d

.bss                0x397c         0x3a
 .bss               0x397c         0x3a SMTP.o
                    0x399e                  SMTPClient

.dconst             0x39b6         0x32
 .dconst            0x39b6         0x32 c:/program files (x86)/microchip/mplab c30/bin/bin/../../lib\libc-coff.a(xldtob.o)

.bss                0x39e8         0x28
 .bss               0x39e8         0x28 DHCP.o

.data               0x3a10         0x6e
 .data              0x3a10         0x28 Main.o
                    0x3a10                  ConnectionProfileID
                    0x3a12                  _WFStat
                    0x3a14                  WFConnection
                    0x3a16                  xTCPPort
                    0x3a18                  xSocket
                    0x3a1a                  xFrontEndStat
                    0x3a1c                  xFrontEndStatRet
                    0x3a1e                  xErr
                    0x3a20                  xBool
                    0x3a22                  WPAWrong
                    0x3a24                  numUdpSocket
                    0x3a26                  xUDPLocalPort
                    0x3a28                  xUDPRemotePort
                    0x3a2a                  activeUdpSocket
                    0x3a2b                  callbackUdpSocket
                    0x3a2c                  udpErr
                    0x3a2e                  udpBool
                    0x3a30                  datadiscard
                    0x3a32                  UDPoverflow
                    0x3a34                  xSemFrontEnd
                    0x3a36                  xSemHW
 .data              0x3a38         0x24 x_input_capture.o
                    0x3a38                  RPICRs
                    0x3a44                  ICCON1Rs
                    0x3a50                  ICCON2Rs
 .data              0x3a5c         0x22 c:/program files (x86)/microchip/mplab c30/bin/bin/../../lib\libc-coff.a(xlitob.o)

.bss                0x3a7e         0x1a
 .bss               0x3a7e         0x1a WFMac_24G.o
                    0x3a94                  g_rxBufferLength
                    0x3a96                  WF_hibernate

.data               0x3a98         0x1a
 .data              0x3a98         0x1a x_HTTPlib.o

.bss                0x3ab2         0x58
 .bss               0x3ab2         0x18 DNS.o
 .bss               0x3aca         0x16 ARP.o
 .bss               0x3ae0         0x16 WFDriverCom_24G.o
                    0x3af2                  RawMoveState
 .bss               0x3af6         0x14 DHCPs.o
                    0x3afa                  DhcpIpPool

.data               0x3b0a         0x24
 .data              0x3b0a         0x12 x_groveboard-pro.o
                    0x3b0a                  g_d1
                    0x3b0c                  g_d2
                    0x3b0e                  g_SCK
                    0x3b0f                  g_MISO
                    0x3b10                  g_MOSI
                    0x3b11                  g_SPI_CS
                    0x3b12                  g_SD_CD
                    0x3b13                  g_I2CSCL
                    0x3b14                  g_I2CSDA
                    0x3b15                  g_an
                    0x3b18                  GroveStarted
                    0x3b1a                  Board
 .data              0x3b1c         0x12 c:/program files (x86)/microchip/mplab c30/bin/bin/../../lib\libc-coff.a(xprintf.o)

.bss                0x3b2e         0x36
 .bss               0x3b2e         0x10 StackTsk.o
                    0x3b34                  remoteNode
 .bss               0x3b3e          0xe SNTP.o
 .bss               0x3b4c          0xc FTPlib.o
 .bss               0x3b58          0xc UDPlib.o

.data               0x3b64          0xa
 .data              0x3b64          0xa HWlib.o

.bss                0x3b6e          0xa
 .bss               0x3b6e          0xa Tick.o

.data               0x3b78         0x1a
 .data              0x3b78          0xa c:/program files (x86)/microchip/mplab c30/bin/bin/../../lib\libc-coff.a(rand.o)
                    0x3b78                  _Tls_setup__Randseed
                    0x3b7a                  _Randseed
                    0x3b7e                  _Tls_setup__Randinit
                    0x3b80                  _Randinit
 .data              0x3b82          0x8 StackTsk.o
                    0x3b82                  DHCPAssigned
                    0x3b84                  g_DhcpRenew
                    0x3b86                  g_DhcpRetryTimer
 .data              0x3b8a          0x8 WFDriverCom_24G.o
                    0x3b8a                  g_DhcpSuccessful
                    0x3b8c                  g_WiFiConnectionChanged
                    0x3b8e                  g_WiFiConnection
                    0x3b90                  g_dhcpInProgress

.bss                0x3b92          0x8
 .bss               0x3b92          0x8 WFPowerSave.o
                    0x3b98                  g_rxDtim

.dconst             0x3b9a          0x8
 .dconst            0x3b9a          0x8 c:/program files (x86)/microchip/mplab c30/bin/bin/../../lib\libc-coff.a(xprintf.o)

.data               0x3ba2          0x6
 .data              0x3ba2          0x6 DHCPs.o
                    0x3ba4                  bDHCPServerEnabled

.bss                0x3ba8         0x12
 .bss               0x3ba8          0x6 INTlib.o
                    0x3ba8                  isr_int2
                    0x3baa                  isr_int3
                    0x3bac                  isr_int4
 .bss               0x3bae          0x6 SPIFlash.o
 .bss               0x3bb4          0x6 x_input_capture.o
                    0x3bb4                  icflag
                    0x3bb6                  icvalue

.data               0x3bba          0x6
 .data              0x3bba          0x6 c:/program files (x86)/microchip/mplab c30/bin/bin/../../lib\libc-coff.a(malloc.o)
                    0x3bba                  _Size_block
                    0x3bbc                  _Aldata

.bss                0x3bc0          0x4
 .bss               0x3bc0          0x4 Announce.o

.data               0x3bc4          0x8
 .data              0x3bc4          0x4 DNS.o
 .data              0x3bc8          0x4 Helpers.o

.bss                0x3bcc          0x8
 .bss               0x3bcc          0x4 IP.o
 .bss               0x3bd0          0x4 NBNS.o

.data               0x3bd4          0xc
 .data              0x3bd4          0x4 tasks.o
                    0x3bd4                  pxCurrentTCB
 .data              0x3bd8          0x4 WFDriverRaw_24G.o
                    0x3bd8                  g_HostRAWDataPacketReceived
                    0x3bda                  g_RawIndexPastEnd
 .data              0x3bdc          0x4 WFMac_24G.o
                    0x3bdc                  WFArpBroadcastIntervalSec

.bss                0x3be0          0x4
 .bss               0x3be0          0x4 WFMgmtMsg_24G.o

.data               0x3be4          0x4
 .data              0x3be4          0x4 c:/program files (x86)/microchip/mplab c30/bin/bin/../../lib\libc-coff.a(errno.o)
                    0x3be4                  _Tls_setup_errno
                    0x3be6                  errno

.bss                0x3be8          0x2
 .bss               0x3be8          0x2 ARPlib.o

.data               0x3bea          0x2
 .data              0x3bea          0x2 DHCP.o
                    0x3bea                  DHCPClientInitializedOnce

.pbss               0x3bec          0x2
 .pbss              0x3bec          0x2 DNS.o

.data               0x3bee          0x4
 .data              0x3bee          0x2 FTPlib.o
 .data              0x3bf0          0x2 heap_2.o

.bss                0x3bf2          0x2
 .bss               0x3bf2          0x2 NETlib.o

.data               0x3bf4          0x4
 .data              0x3bf4          0x2 port.o
                    0x3bf4                  uxCriticalNesting
 .data              0x3bf6          0x2 SMTP.o

.bss                0x3bf8          0x2
 .bss               0x3bf8          0x2 SMTPlib.o

.data               0x3bfa          0x4
 .data              0x3bfa          0x2 SNTP.o
 .data              0x3bfc          0x2 TCP.o

.pbss               0x3bfe          0x2
 .pbss              0x3bfe          0x2 TCP.o

.bss                0x3c00          0x2
 .bss               0x3c00          0x2 TCPlib.o

.data               0x3c02          0x2
 .data              0x3c02          0x2 UDP.o

.pbss               0x3c04          0x2
 .pbss              0x3c04          0x2 UDP.o

.data               0x3c06          0x2
 .data              0x3c06          0x2 WFConnectionAlgorithm.o

.bss                0x3c08          0x4
 .bss               0x3c08          0x2 WFConnectionManager.o
 .bss               0x3c0a          0x2 WFDriverRaw_24G.o
                    0x3c0a                  RawWindowState

.data               0x3c0c          0x6
 .data              0x3c0c          0x2 WFMgmtMsg_24G.o
                    0x3c0c                  g_WaitingForMgmtResponse
 .data              0x3c0e          0x2 WFPowerSave.o
 .data              0x3c10          0x2 WF_Config.o
                    0x3c10                  WFNetworkFound

.bss                0x3c12          0x2
 .bss               0x3c12          0x2 WF_Config.o
                    0x3c12                  myRSSI

.data               0x3c14          0x2
 .data              0x3c14          0x2 WF_Events.o
                    0x3c14                  ScanCompleted

.bss                0x3c16          0x2
 .bss               0x3c16          0x2 WF_Spi.o

.data               0x3c18          0x4
 .data              0x3c18          0x2 x_analog_in-pro.o
                    0x3c18                  An_i
 .data              0x3c1a          0x2 x_digital_io-pro.o
                    0x3c1a                  Dig_io

.bss                0x3c1c          0x2
 .bss               0x3c1c          0x2 x_grovelib-pro.o
                    0x3c1c                  flag

.data               0x3c1e          0x6
 .data              0x3c1e          0x2 x_sonic_ranger.o
                    0x3c1e                  Ranger
 .data              0x3c20          0x2 c:/program files (x86)/microchip/mplab c30/bin/bin/../../lib\libpic30-coff.a(c30_uart.o)
                    0x3c20                  __C30_UART
 .data              0x3c22          0x2 c:/program files (x86)/microchip/mplab c30/bin/bin/../../lib\libc-coff.a(strtok.o)

.bss                0x3c24          0x2
 .bss               0x3c24          0x2 c:/program files (x86)/microchip/mplab c30/bin/bin/../../lib\libc-coff.a(strtok.o)

.dconst             0x3c26          0x2
 .dconst            0x3c26          0x2 c:/program files (x86)/microchip/mplab c30/bin/bin/../../lib\libc-coff.a(strtok.o)

.data               0x3c28          0x2
 .data              0x3c28          0x2 c:/program files (x86)/microchip/mplab c30/bin/bin/../../lib\libc-coff.a(ldiv.o)

.dconst             0x3c2a          0x2
 .dconst            0x3c2a          0x2 c:/program files (x86)/microchip/mplab c30/bin/bin/../../lib\libc-coff.a(xgenld.o)

.data               0x3c2c          0x2
 .data              0x3c2c          0x2 c:/program files (x86)/microchip/mplab c30/bin/bin/../../lib\libc-coff.a(div.o)

.bss                0x3c2e          0x2
 .bss               0x3c2e          0x2 c:/program files (x86)/microchip/mplab c30/bin/bin/../../lib\libpic30-coff.a(brk.o)
                    0x3c2e                  __curbrk

_034cb1c0543fa364
                    0x17478       0x1388
 _034cb1c0543fa364
                    0x17478       0x1388 x_HTTPlib.o
                    0x17478                  eds_space

my_heap             0x3c30        0x500
 my_heap            0x3c30        0x500 x_heap.o

.const              0xa696       0x1e72 load address 0x002696  
 .const             0xa696        0xeae WFDebugStrings.o
 .const             0xb544        0x4b6 HTTP2.o
 .const             0xb9fa        0x1d4 FTPlib.o
 .const             0xbbce        0x1bc taskFlyport.o
 .const             0xbd8a        0x140 Hashes.o
 .const             0xbeca         0xd8 WFMgmtMsg_24G.o
 .const             0xbfa2         0xca ISRs.o
 .const             0xc06c         0xc8 x_HTTPlib.o
 .const             0xc134         0xae HTTPApp.o
 .const             0xc1e2         0x86 SMTP.o
 .const             0xc268         0x6c WF_Events.o
 .const             0xc2d4         0x68 Main.o
 .const             0xc33c         0x46 NETlib.o
 .const             0xc382         0x46 WFDriverRaw_24G.o
                    0xc3be                  g_RawAccessOutOfBoundsMask
 .const             0xc3c8         0x28 TCPIP_Utils.o
 .const             0xc3f0         0x20 port.o
 .const             0xc410         0x1e WF_Utils.o
 .const             0xc42e         0x1c Announce.o
 .const             0xc44a         0x1a DHCP.o
 .const             0xc464         0x18 TCP.o
                    0xc464                  TCPSocketInitializer
 .const             0xc47c         0x16 x_input_capture.o
                    0xc47c                  ICPos
 .const             0xc492          0xe Helpers.o
 .const             0xc4a0          0xe SNTP.o
 .const             0xc4ae          0xe x_analog_in-pro.o
 .const             0xc4bc          0xe x_digital_io-pro.o
 .const             0xc4ca          0xe x_sonic_ranger.o
 .const             0xc4d8          0xc x_groveboard-pro.o
 .const             0xc4e4          0xa TCPlib.o
 .const             0xc4ee          0x8 MPFS2.o
 .const             0xc4f6          0x6 tasks.o
 .const             0xc4fc          0x6 WFInit.o
 .const             0xc502          0x4 MPFSImg2.o
                    0xc502                  MPFS_Start
 .const             0xc506          0x2 heap_2.o

MPFSData          0x004508       0x7d3e
 MPFSData         0x004508       0x7d3e MPFSImg2.o
                  0x00450c                  BEGIN_MPFS

.text             0x00c246       0xf77a
 .text            0x00c246       0x240a HWlib.o
                  0x00c246                  _dbgwrite
                  0x00c254                  ADCInit
                  0x00c284                  ADCRefEnable
                  0x00c2a2                  _ADC1Interrupt
                  0x00c2b6                  ADCVal
                  0x00c2da                  ADCAttach
                  0x00c306                  ADCDetach
                  0x00c33a                  IOPut
                  0x00c456                  IOInit
                  0x00c96c                  IOGet
                  0x00c9ea                  IOButtonState
                  0x00caa8                  UARTInit
                  0x00cbfe                  UARTOn
                  0x00ccd4                  UARTOff
                  0x00cd62                  UARTRxInt
                  0x00ce60                  UARTFlush
                  0x00ce8c                  UARTBufferSize
                  0x00cf20                  UARTRead
                  0x00cfe2                  UARTWrite
                  0x00d07a                  UARTWriteCh
                  0x00d0f0                  PWMInit
                  0x00d368                  PWMOn
                  0x00d4ac                  PWMDuty
                  0x00d522                  PWMOff
                  0x00d53a                  I2CInit
                  0x00d556                  I2CStart
                  0x00d598                  I2CRestart
                  0x00d5da                  I2CStop
                  0x00d61c                  I2CGetDevAck
                  0x00d65a                  I2CTimeout
                  0x00d66a                  I2CAddrSizeSet
                  0x00d690                  I2CAddrSizeGet
                  0x00d69c                  I2CWrite
                  0x00d71e                  I2CRead
                  0x00d7c4                  I2CReadReg
                  0x00d828                  I2CReadMulti
                  0x00d8e2                  I2CWriteReg
                  0x00d928                  I2CWriteMulti
                  0x00d98a                  I2C2Init
                  0x00d9a2                  I2C2Start
                  0x00d9e4                  I2C2Restart
                  0x00da26                  I2C2Stop
                  0x00da68                  I2C2GetDevAck
                  0x00daa6                  I2C2Timeout
                  0x00dab6                  I2C2AddrSizeSet
                  0x00dadc                  I2C2AddrSizeGet
                  0x00dae8                  I2C2Write
                  0x00db6a                  I2C2Read
                  0x00dc10                  I2C2ReadReg
                  0x00dc74                  I2C2ReadMulti
                  0x00dd2e                  I2C2WriteReg
                  0x00dd74                  I2C2WriteMulti
                  0x00ddd6                  EEInit
                  0x00de18                  EERWDelay
                  0x00de24                  EESetPageSize
                  0x00de30                  EEGetPageSize
                  0x00e30a                  EESaveData
                  0x00e438                  EELoadData
                  0x00e510                  EEEraseData
                  0x00e60c                  EESaveString
                  0x00e624                  EELoadString
                  0x00e63c                  EEEraseString
 .text            0x00e650       0x2400 TCP.o
                  0x00e6fe                  TCPInit
                  0x00e7d4                  TCPOpen
                  0x00e928                  TCPWasReset
                  0x00e95c                  TCPIsConnected
                  0x00e984                  TCPDisconnect
                  0x00ea28                  TCPClose
                  0x00ea44                  TCPGetRemoteInfo
                  0x00ea70                  TCPFlush
                  0x00ea92                  TCPIsPutReady
                  0x00eae8                  TCPPut
                  0x00eb88                  TCPPutArray
                  0x00ec6a                  TCPPutString
                  0x00ec88                  TCPGetTxFIFOFull
                  0x00ecb6                  TCPDiscard
                  0x00ecd4                  TCPIsGetReady
                  0x00ed12                  TCPGet
                  0x00ed84                  TCPGetArray
                  0x00ee48                  TCPGetRxFIFOFree
                  0x00ee74                  TCPPeekArray
                  0x00ef1e                  TCPPeek
                  0x00ef36                  TCPFindArrayEx
                  0x00f1c0                  TCPFindEx
                  0x00f1de                  TCPTick
                  0x00f66e                  TCPProcess
                  0x010838                  TCPAdjustFIFOSize
 .text            0x010a50       0x1374 HTTP2.o
                  0x010a50                  HTTPPrint
                  0x010a72                  HTTPPrint_
                  0x010a8e                  HTTPInit
                  0x010b16                  HTTPServer
                  0x0119cc                  HTTPURLDecode
                  0x011a9a                  HTTPGetArg
                  0x011ae2                  HTTPReadPostName
                  0x011b0a                  HTTPReadPostValue
                  0x011cf8                  HTTPIncFile
 .text            0x011dc4        0xfb2 SMTP.o
                  0x011dc4                  SMTPBeginUsage
                  0x011e24                  SMTPEndUsage
                  0x011e7e                  SMTPTask
                  0x012a96                  SMTPSendMail
                  0x012aa6                  SMTPIsBusy
                  0x012abc                  SMTPIsPutReady
                  0x012ada                  SMTPPut
                  0x012b7e                  SMTPPutArray
                  0x012bba                  SMTPPutString
                  0x012bf0                  SMTPFlush
                  0x012bfe                  SMTPPutDone
 .text            0x012d76        0xeb0 FTPlib.o
                  0x012d76                  FTPClientOpen
                  0x012d8e                  FTPRead
                  0x012da4                  FTPWrite
                  0x012dba                  FTPClose
                  0x012dcc                  FTPisConn
                  0x012dda                  FTPRxLen
                  0x012de8                  FTPClientPasv
                  0x012fac                  FTPSendCmd
                  0x013052                  FTPConnect
                  0x0132be                  FTPFileCheck
                  0x013354                  FTPFileSize
                  0x0133fe                  FTPStore
                  0x013414                  FTPAppend
                  0x0135fc                  FTPStreamOpen
                  0x013782                  FTPStreamWrite
                  0x013854                  FTPStreamRead
                  0x0139ca                  FTPStreamClose
                  0x0139ea                  FTPStreamStat
                  0x0139f4                  FTPAnswer
                  0x013a50                  FTPRxFlush
                  0x013b0c                  FTPRxRead
 .text            0x013c26        0xc12 NETlib.o
                  0x013c26                  WFGetPSK
                  0x013ccc                  cWFGetPSK
                  0x013d20                  NETCustomSave
                  0x013dfe                  NETCustomDelete
                  0x013e4c                  NETCustomExist
                  0x013e7a                  NETCustomLoad
                  0x013f12                  NETSetParam
                  0x0140c0                  WFGeneric
                  0x014156                  WFConnect
                  0x0141f4                  WFDisconnect
                  0x014214                  WFScan
                  0x014230                  RSSIUpdate
                  0x01425a                  cRSSIUpdate
                  0x0142b8                  RSSIValue
                  0x0142c4                  RSSIStatus
                  0x0142e6                  WFScanList
                  0x0143ba                  WFStopConnecting
                  0x014452                  WFSetChannel
                  0x0144ba                  WFSetSecurity
                  0x014506                  WFHibernate
                  0x014532                  WFSleep
                  0x01456a                  WFOn
                  0x01459c                  WFPsPollEnable
                  0x014652                  cWFDisconnect
                  0x014672                  cWFScan
                  0x0146fe                  cWFScanList
                  0x0147ca                  WFGetStat
                  0x0147d2                  cWFStopConnecting
                  0x01480a                  cWFConnect
                  0x01481e                  cWFPsPollDisable
                  0x01482a                  cWFPsPollEnable
 .text            0x014838        0xb5a MPFS2.o
                  0x014838                  MPFSInit
                  0x014862                  MPFSOpen
                  0x0149b0                  MPFSOpenID
                  0x014a34                  MPFSClose
                  0x014a56                  MPFSGet
                  0x014bfc                  MPFSGetArray
                  0x014e60                  MPFSGetLong
                  0x014e80                  MPFSSeek
                  0x01509a                  MPFSGetTimestamp
                  0x0150e8                  MPFSGetMicrotime
                  0x015136                  MPFSGetFlags
                  0x01517a                  MPFSGetSize
                  0x0151c8                  MPFSGetBytesRem
                  0x015210                  MPFSGetStartAddr
                  0x015260                  MPFSGetEndAddr
                  0x0152ba                  MPFSGetFilename
                  0x015322                  MPFSGetPosition
                  0x015342                  MPFSGetID
 .text            0x015392        0xae2 taskFlyport.o
                  0x015392                  FlyportTask
                  0x01571c                  state_machine
                  0x015e3a                  blink
 .text            0x015e74        0xada DHCPs.o
                  0x015e74                  DHCPServerInit
                  0x015e96                  DHCPServerSMInit
                  0x015ea0                  DHCPServerTask
                  0x016916                  DHCPServer_Disable
                  0x016940                  DHCPServer_Enable
 .text            0x01694e        0xa94 DHCP.o
                  0x01694e                  DHCPInit
                  0x01699e                  DHCPDisable
                  0x0169c0                  DHCPEnable
                  0x0169d8                  DHCPIsEnabled
                  0x0169f0                  DHCPIsBound
                  0x0169fe                  DHCPStateChanged
                  0x016a20                  DHCPIsServerDetected
                  0x016a30                  DHCPTempIPAddr
                  0x016a76                  DHCPTask
 .text            0x0173e2        0xa8e Helpers.o
                  0x0173e2                  LFSRSeedRand
                  0x017422                  LFSRRand
                  0x017490                  GenerateRandomDWORD
                  0x0175ce                  StringToIPAddress
                  0x017756                  IPAddressToString
                  0x017798                  Base64Decode
                  0x0178d6                  Base64Encode
                  0x017a32                  uitoa
                  0x017ab0                  ultoa
                  0x017b60                  hexatob
                  0x017bd6                  btohexa_high
                  0x017bfe                  btohexa_low
                  0x017c24                  stricmppgm2ram
                  0x017cbc                  swaps
                  0x017cd6                  swapl
                  0x017d34                  CalcIPChecksum
                  0x017da8                  strupr
                  0x017de2                  FormatNetBIOSName
                  0x017e2a                  strnchr
 .text            0x017e70        0xa70 tasks.o
                  0x017e70                  xTaskGenericCreate
                  0x017f6c                  vTaskDelete
                  0x017fd8                  vTaskDelayUntil
                  0x018050                  vTaskDelay
                  0x01808c                  vTaskPrioritySet
                  0x01816a                  vTaskSuspend
                  0x0181dc                  xTaskIsTaskSuspended
                  0x01820e                  vTaskResume
                  0x018270                  xTaskResumeFromISR
                  0x0182e2                  vTaskStartScheduler
                  0x018316                  vTaskEndScheduler
                  0x01832c                  vTaskSuspendAll
                  0x018338                  xTaskResumeAll
                  0x0183ea                  xTaskGetTickCount
                  0x0183fe                  xTaskGetTickCountFromISR
                  0x01840e                  uxTaskGetNumberOfTasks
                  0x018416                  vTaskIncrementTick
                  0x0184d2                  vTaskSwitchContext
                  0x01852c                  vTaskPlaceOnEventList
                  0x018564                  xTaskRemoveFromEventList
                  0x0185d4                  vTaskSetTimeOutState
                  0x0185e8                  xTaskCheckForTimeOut
                  0x018654                  vTaskMissedYield
                  0x01865e                  tasks.o:_prvIdleTask
                  0x018802                  xTaskGetCurrentTaskHandle
                  0x01880e                  vTaskPriorityInherit
                  0x018886                  vTaskPriorityDisinherit
 .text            0x0188e0        0x8a6 DNS.o
                  0x0188e0                  DNSInit
                  0x0188f4                  DNSBeginUsage
                  0x01891a                  DNSEndUsage
                  0x018950                  DNSResolve
                  0x018992                  DNSIsResolved
 .text            0x019186        0x874 TCPlib.o
                  0x019186                  TCPGenericOpen
                  0x01927a                  cTCPGenericOpen
                  0x0192a4                  TCPGenericClose
                  0x019344                  cTCPGenericClose
                  0x019354                  TCPServerDetach
                  0x0193f4                  cTCPServerDetach
                  0x019404                  TCPClientOpen
                  0x01941a                  TCPServerOpen
                  0x01942e                  TCPRead
                  0x0194da                  TCPpRead
                  0x01958c                  cTCPpRead
                  0x0195d6                  cTCPRead
                  0x0195f8                  TCPWrite
                  0x0196b6                  cTCPWrite
                  0x0196d6                  TCPRemote
                  0x01979c                  cTCPRemote
                  0x0197b8                  TCPClientClose
                  0x0197c4                  TCPServerClose
                  0x0197d0                  TCPisConn
                  0x01987e                  cTCPisConn
                  0x019890                  TCPRxFlush
                  0x019930                  cTCPRxFlush
                  0x019940                  TCPRxLen
                  0x0199e8                  cTCPRxLen
 .text            0x0199fa        0x830 WFMac_24G.o
                  0x0199fa                  GetReadPtrRawWindow
                  0x019b20                  WFPeriodicGratuitousArp
                  0x019ba8                  RetrieveBinaryKey
                  0x019be2                  MACProcess
                  0x019c0c                  WFGetTCBSize
                  0x019c14                  MACInit
                  0x019c1e                  RawInit
                  0x019c5e                  MACIsLinked
                  0x019c68                  MACIsTxReady
                  0x019c86                  RawGetMgmtRxBuffer
                  0x019c9a                  MACDiscardRx
                  0x019cac                  MACGetFreeRxSize
                  0x019d22                  MACGetHeader
                  0x019dfe                  MACPutHeader
                  0x019e5a                  MACPutGeneralHeader
                  0x019ea8                  MACFlush
                  0x019eca                  MACSetReadPtrInRx
                  0x019eda                  MACSetWritePtr
                  0x019eee                  MACSetReadPtr
                  0x019f02                  MACCalcRxChecksum
                  0x019f2a                  MACMemCopyAsync
                  0x01a152                  MACIsMemCopyDone
                  0x01a15a                  MACGet
                  0x01a178                  MACGetArray
                  0x01a1bc                  MACPut
                  0x01a1dc                  MACPutArray
                  0x01a1fc                  MACPowerDown
                  0x01a202                  MACPowerUp
                  0x01a208                  CalcIPBufferChecksum
 .text            0x01a22a        0x812 x_HTTPlib.o
                  0x01a22a                  HTTP_Read
                  0x01a526                  HTTP_Get
                  0x01a5c8                  HTTP_GetSimple
                  0x01a5f4                  HTTP_Post
                  0x01a6b6                  HTTP_PostSimple
                  0x01a6ec                  HTTP_Put
                  0x01a7a2                  HTTP_URLEncode
                  0x01a8b4                  HTTP_URLEncodeLen
                  0x01a91c                  HTTP_URLDecode
                  0x01a9fa                  HTTP_URLDecodeLen
 .text            0x01aa3c        0x800 UDPlib.o
                  0x01aa3c                  UDPGenericOpen
                  0x01ab04                  cUDPGenericOpen
                  0x01aba4                  UDPLocalPort
                  0x01abbc                  UDPServerOpen
                  0x01abd0                  UDPClientOpen
                  0x01abf8                  UDPBroadcastOpen
                  0x01ac0c                  UDPGenericClose
                  0x01ac9c                  cUDPGenericClose
                  0x01acd0                  UDPServerClose
                  0x01acde                  UDPClientClose
                  0x01acec                  UDPRxLen
                  0x01ad00                  UDPRxFlush
                  0x01ad50                  UDPRxOver
                  0x01ad82                  UDPRead
                  0x01aeb0                  UDPpRead
                  0x01afa0                  UDPWrite
                  0x01b04c                  cUDPWrite
                  0x01b088                  UDPMultiOn
                  0x01b132                  cUDPMultiOn
                  0x01b1da                  UDPMultiOpen
 .text            0x01b23c        0x784 UDP.o
                  0x01b23c                  UDPInit
                  0x01b25e                  UDPOpenEx
                  0x01b37e                  UDPTask
                  0x01b564                  UDPIsOpened
                  0x01b586                  UDPClose
                  0x01b5be                  UDPSetTxBuffer
                  0x01b5d2                  UDPSetRxBuffer
                  0x01b5e6                  UDPIsPutReady
                  0x01b61e                  UDPPut
                  0x01b652                  UDPPutArray
                  0x01b68a                  UDPPutString
                  0x01b6a0                  UDPFlush
                  0x01b700                  UDPIsGetReady
                  0x01b73c                  UDPGet
                  0x01b774                  UDPGetArray
                  0x01b7c0                  UDPDiscard
                  0x01b7e8                  UDPProcess

.dinit            0x01b9c0        0x754
 .dinit           0x01b9c0        0x754 data_init

.text             0x01c114       0x7f94
 .text            0x01c114        0x6a0 SPIFlash.o
                  0x01c114                  SPIFlashInit
                  0x01c232                  SPIFlashReadArray
                  0x01c324                  SPIFlashBeginWrite
                  0x01c332                  SPIFlashWrite
                  0x01c450                  SPIFlashWriteArray
                  0x01c692                  SPIFlashEraseSector
 .text            0x01c7b4        0x688 queue.o
                  0x01c7b4                  xQueueGenericReset
                  0x01c842                  xQueueGenericCreate
                  0x01c8a4                  xQueueCreateMutex
                  0x01c90a                  xQueueGenericSend
                  0x01c9f4                  xQueueGenericSendFromISR
                  0x01ca5e                  xQueueGenericReceive
                  0x01cba4                  xQueueReceiveFromISR
                  0x01cc10                  uxQueueMessagesWaiting
                  0x01cc28                  uxQueueMessagesWaitingFromISR
                  0x01cc38                  vQueueDelete
                  0x01cdd8                  xQueueIsQueueEmptyFromISR
                  0x01ce1c                  xQueueIsQueueFullFromISR
 .text            0x01ce3c        0x65a HTTPApp.o
                  0x01ce3c                  HTTPExecuteGet
                  0x01ce44                  HTTPExecutePost
                  0x01d446                  HTTPNeedsAuth
                  0x01d468                  HTTPCheckAuth
 .text            0x01d496        0x650 Main.o
                  0x01d496                  CmdCheck
                  0x01d7d6                  main
                  0x01d82e                  TCPIPTask
 .text            0x01dae6        0x632 WFDriverCom_24G.o
                  0x01dae6                  WiFiTask
                  0x01db6a                  WFProcess
                  0x01db9c                  SignalDHCPSuccessful
                  0x01dbaa                  SetDhcpProgressState
                  0x01dbc2                  SignalWiFiConnectionChanged
                  0x01dc70                  Read8BitWFRegister
                  0x01dc9a                  Write8BitWFRegister
                  0x01dcc2                  Read16BitWFRegister
                  0x01dcf6                  Write16BitWFRegister
                  0x01dd2a                  WriteWFArray
                  0x01dd5a                  ReadWFArray
                  0x01de9e                  WFEintHandler
                  0x01df48                  ReenablePowerSaveMode
                  0x01df52                  WFHardwareInit
 .text            0x01e118        0x628 WFDebugStrings.o
                  0x01e118                  WF_OutputConnectionContext
                  0x01e1aa                  WF_OutputConnectionDebugMsg
                  0x01e3f2                  WF_OutputConnectionInfo
                  0x01e680                  WF_AssertionFailed
                  0x01e6f0                  WF_DisplayModuleAssertInfo
 .text            0x01e740        0x4f4 x_groveboard-pro.o
                  0x01e740                  ReadBatteryLevel
                  0x01e762                  GroveDevicesPowerSupply
                  0x01e782                  x_groveboard-pro.o:_Board_ctor
                  0x01e87a                  attachSensorToI2CBus
                  0x01e92c                  attachSensorToDigioBus
                  0x01ea4e                  attachSensorToAnBus
                  0x01eb16                  attachSensorToUartBus
 .text            0x01ec34        0x4de Hashes.o
                  0x01ec34                  HashAddData
                  0x01ec50                  MD5Initialize
                  0x01ec8c                  MD5AddData
                  0x01ef8e                  MD5Calculate
 .text            0x01f112        0x4da x_input_capture.o
                  0x01f112                  _IC1Interrupt
                  0x01f14c                  _IC2Interrupt
                  0x01f166                  _IC3Interrupt
                  0x01f1a0                  _IC4Interrupt
                  0x01f1ba                  _IC5Interrupt
                  0x01f1f4                  _IC6Interrupt
                  0x01f20e                  IOInit_
                  0x01f2b6                  ICInit
                  0x01f350                  ICOn
                  0x01f422                  ICOff
                  0x01f490                  OneWireDecode
 .text            0x01f5ec        0x4b6 WFParamMsg_24G.o
                  0x01f5ec                  WFEnableMRF24WB0MMode
                  0x01f5fe                  WFEnableDebugPrint
                  0x01f60e                  WF_SetLinkDownThreshold
                  0x01f61e                  WF_SetTxMode
                  0x01f62e                  WF_GetTxMode
                  0x01f63e                  WFEnableBroadcastProbeResponse
                  0x01f650                  WF_GetDeviceInfo
                  0x01f6a6                  WF_SetMacAddress
                  0x01f6b6                  WF_GetMacAddress
                  0x01f6c6                  WF_MulticastSetConfig
                  0x01f772                  WF_MulticastGetConfig
                  0x01f7d8                  WF_SetTxDataConfirm
                  0x01f7e8                  WF_GetTxDataConfirm
                  0x01f7f8                  WF_SetRegionalDomain
                  0x01f808                  WF_GetRegionalDomain
                  0x01f818                  WF_SetRtsThreshold
                  0x01f842                  WF_YieldPassphrase2Host
                  0x01f854                  WF_SetPSK
                  0x01f864                  WF_GetRtsThreshold
                  0x01f882                  WF_SetMultiCastFilter
                  0x01f8f8                  WF_EnableSWMultiCastFilter
                  0x01f90a                  WF_GetMacStats
                  0x01fa3e                  SendSetParamMsg
                  0x01fa6e                  SendGetParamMsg
 .text            0x01faa2        0x49a WFDriverRaw_24G.o
                  0x01faa2                  RawCalculateChecksum
                  0x01fabe                  AllocateMgmtTxBuffer
                  0x01fb10                  DeallocateMgmtRxBuffer
                  0x01fb20                  AllocateDataTxBuffer
                  0x01fb7c                  SendRAWDataFrame
                  0x01fba6                  SendRAWManagementFrame
                  0x01fbb8                  DeallocateDataRxBuffer
                  0x01fbe2                  RawMountRxBuffer
                  0x01fc12                  RawToRawCopy
                  0x01fc40                  PushRawWindow
                  0x01fc52                  PopRawWindow
                  0x01fc6a                  ScratchMount
                  0x01fc8e                  ScratchUnmount
                  0x01fca0                  RawRead
                  0x01fcbc                  RawWrite
                  0x01fd5a                  RawSetIndex
                  0x01fde6                  RawGetIndex
                  0x01fe02                  RawGetByte
                  0x01fe3e                  RawSetByte
 .text            0x01ff3c        0x48a WFConnectionAlgorithm.o
                  0x01ff3c                  WF_CASetElements
                  0x01fff4                  WF_CASetElementsN
                  0x020028                  WF_CAGetElements
                  0x020072                  WF_CASetScanType
                  0x020082                  WF_CAGetScanType
                  0x020094                  WF_CASetMinChannelTime
                  0x0200ae                  WF_CAGetMinChannelTime
                  0x0200ce                  WF_CASetMaxChannelTime
                  0x0200e8                  WF_CAGetMaxChannelTime
                  0x020108                  WF_CASetProbeDelay
                  0x020122                  WF_CAGetProbeDelay
                  0x020142                  WF_CASetScanCount
                  0x020152                  WF_CAGetScanCount
                  0x020164                  WF_CASetRssi
                  0x020174                  WF_CAGetRssi
                  0x020186                  WF_CASetListRetryCount
                  0x020196                  WF_CAGetListRetryCount
                  0x0201a8                  WF_CASetEventNotificationAction
                  0x0201b4                  WF_CAGetEventNotificationAction
                  0x0201c4                  WF_CASetBeaconTimeoutAction
                  0x0201d4                  WF_CAGetBeaconTimeoutAction
                  0x0201e6                  WF_CASetDeauthAction
                  0x0201f6                  WF_CAGetDeauthAction
                  0x020208                  WF_CASetChannelList
                  0x02021a                  WF_CAGetChannelList
                  0x020256                  WF_CASetListenInterval
                  0x020270                  WF_CASetDtimInterval
                  0x02028a                  WF_CAGetListenInterval
                  0x0202aa                  WF_CASetBeaconPeriod
                  0x0202c4                  WF_CAGetBeaconPeriod
                  0x0202e4                  WF_CAGetDtimInterval
                  0x020304                  WF_CASetBeaconTimeout
                  0x020314                  WF_CAGetBeaconTimeout
                  0x020332                  GetEventNotificationMask
                  0x0203b4                  WF_DisableModuleConnectionManager
 .text            0x0203c6        0x46e ARP.o
                  0x0203c6                  ARPSendPkt
                  0x02048a                  ARPInit
                  0x0204e4                  ARPProcess
                  0x0205fc                  ARPResolve
                  0x0206e0                  ARPIsResolved
                  0x020802                  SwapARPPacket
 .text            0x020834        0x46e StackTsk.o
                  0x020834                  StackInit
                  0x0208a2                  StackTask
                  0x020c7a                  StackApplications
                  0x020c94                  RenewDhcp
 .text            0x020ca2        0x3c6 NBNS.o
                  0x020ca2                  NBNSInit
                  0x020cac                  NBNSTask
 .text            0x021068        0x3b2 SMTPlib.o
                  0x021068                  GenericSMTP
                  0x021110                  SMTPStart
                  0x02111a                  cSMTPStart
                  0x021128                  SMTPSetServer
                  0x0211c8                  cSMTPSetServer
                  0x021214                  SMTPSetMsg
                  0x0212b4                  cSMTPSetMsg
                  0x021310                  SMTPSend
                  0x02131a                  cSMTPSend
                  0x02132a                  SMTPBusy
                  0x021334                  cSMTPBusy
                  0x021342                  SMTPStop
                  0x02134c                  cSMTPStop
                  0x021366                  SMTPReport
                  0x02140c                  cSMTPReport
 .text            0x02141a        0x3a2 WFConnectionProfile.o
                  0x02141a                  WF_CPCreate
                  0x021448                  WF_CPDelete
                  0x02146c                  WF_CPGetIds
                  0x021494                  WF_CPSetElements
                  0x0214ba                  WF_CPGetElements
                  0x0214d0                  WF_CPSetSsidType
                  0x0214e4                  WF_CPGetSsidType
                  0x0214fa                  WF_CPSetSsid
                  0x021520                  WF_CPGetSsid
                  0x021560                  WF_CPSetBssid
                  0x021574                  WF_CPGetBssid
                  0x02158a                  WF_CPSetNetworkType
                  0x02159e                  WF_CPGetNetworkType
                  0x0215b4                  WF_CPSetWepKeyType
                  0x0215c8                  WF_CPGetWepKeyType
                  0x0215de                  WF_CPGetWPSCredentials
                  0x0215f4                  WF_CPUpdatePMK
                  0x021608                  WF_CPSetSecurity
                  0x021680                  WF_CPGetSecurity
                  0x0216ea                  WF_CPSetDefaultWepKeyIndex
                  0x0216fe                  WF_CPGetDefaultWepKeyIndex
                  0x021714                  WF_CPSetAdHocBehavior
                  0x021728                  WF_CPGetAdHocBehavior
 .text            0x0217bc        0x28a TCPIP_Utils.o
                  0x0217bc                  DisplayIPValue
                  0x0217f6                  InitAppConfig
 .text            0x021a46        0x252 WFEventHandler.o
                  0x021a46                  WFProcessMgmtIndicateMsg
 .text            0x021c98        0x232 x_grovelib-pro.o
                  0x021c98                  new
                  0x021cc2                  delete_
                  0x021cf4                  delet_
                  0x021d02                  attachToBoard
                  0x021d4e                  configure
                  0x021d8a                  set
                  0x021dc6                  get
                  0x021e16                  readError
 .text            0x021eca        0x230 SNTP.o
                  0x021eca                  SNTPInit
                  0x021eda                  SNTPClient
                  0x0220a2                  SNTPGetUTCSeconds
 .text            0x0220fa        0x200 IP.o
                  0x0220fa                  IPGetHeader
                  0x02220c                  IPPutHeader
                  0x0222b4                  IPSetRxBuffer
 .text            0x0222fa        0x1f4 x_sonic_ranger.o
                  0x022358                  x_sonic_ranger.o:_Ranger_ctor
                  0x02236e                  x_sonic_ranger.o:_Ranger_dtor
                  0x022394                  x_sonic_ranger.o:_Ranger_attach
                  0x0223b8                  x_sonic_ranger.o:_Ranger_configure
                  0x0223f4                  x_sonic_ranger.o:_Ranger_get
 .text            0x0224ee        0x1e2 x_digital_io-pro.o
                  0x0224ee                  x_digital_io-pro.o:_Dig_io_ctor
                  0x022588                  x_digital_io-pro.o:_Dig_io_dtor
                  0x0225c6                  x_digital_io-pro.o:_Dig_io_attach
                  0x022606                  x_digital_io-pro.o:_Dig_io_set_dig_io
                  0x0226aa                  x_digital_io-pro.o:_Dig_io_get_dig_io
 .text            0x0226d0        0x1be WFMgmtMsg_24G.o
                  0x0226d0                  SendMgmtMsg
                  0x022756                  SignalMgmtConfirmReceivedEvent
                  0x022760                  WaitForMgmtResponse
                  0x022800                  WaitForMgmtResponseAndReadData
                  0x022862                  WFSetFuncState
 .text            0x02288e        0x1ba INTlib.o
                  0x02288e                  nothigToDo
                  0x022894                  INTDetach
                  0x0228c4                  INTAttach
                  0x0228f6                  INTInit
                  0x02298e                  INTPriority
                  0x0229ee                  INTEnable
                  0x022a1e                  INTDisable
 .text            0x022a48        0x1b0 ISRs.o
                  0x022a48                  _U1RXInterrupt
                  0x022a68                  _U2RXInterrupt
                  0x022a88                  _U3RXInterrupt
                  0x022aa8                  _U4RXInterrupt
                  0x022aae                  _DefaultInterrupt
                  0x022ad8                  _OscillatorFail
                  0x022b02                  _AddressError
                  0x022b2c                  _StackError
                  0x022b56                  _MathError
                  0x022b80                  _INT2Interrupt
                  0x022ba8                  _INT3Interrupt
                  0x022bd0                  _INT4Interrupt
 .text            0x022bf8        0x18a heap_2.o
                  0x022bf8                  pvPortMalloc
                  0x022ce8                  vPortFree
                  0x022d44                  xPortGetFreeHeapSize
                  0x022d4c                  vPortInitialiseBlocks
 .text            0x022d82        0x188 Announce.o
                  0x022d82                  AnnounceInit
                  0x022d8c                  AnnounceIP
                  0x022e18                  DiscoveryTask
 .text            0x022f0a        0x16a WFPowerSave.o
                  0x022f0a                  WFConfigureLowPowerMode
                  0x022f4a                  WF_PsPollEnable
                  0x022f8c                  isSleepNeeded
                  0x022f94                  ClearSleepNeeded
                  0x022f9e                  SetSleepNeeded
                  0x022fa8                  SetAppPowerSaveMode
                  0x022fb4                  GetAppPowerSaveMode
                  0x022fbc                  WF_PsPollDisable
                  0x022fde                  WF_GetPowerSaveState
                  0x022fee                  WFisPsPollEnabled
                  0x023010                  WFIsPsPollActive
                  0x023018                  EnsureWFisAwake
                  0x02303a                  WF_HibernateEnable
                  0x023068                  SetPowerSaveState
 .text            0x023074        0x156 port.o
                  0x023074                  pxPortInitialiseStack
                  0x02310a                  xPortStartScheduler
                  0x02313a                  vPortEndScheduler
                  0x02316e                  vPortEnterCritical
                  0x023182                  vPortExitCritical
                  0x02319c                  _T5Interrupt
 .text            0x0231ca        0x140 WFConnectionManager.o
                  0x0231ca                  WF_CMConnect
                  0x02321a                  WF_CMDisconnect
                  0x023252                  WF_CMGetConnectionState
                  0x0232a8                  WFisConnected
                  0x0232b0                  SetLogicalConnectionState
                  0x0232bc                  WF_CMCheckConnectionState
                  0x0232f8                  WF_CMGetConnectContext
 .text            0x02330a        0x12e Tick.o
                  0x02330a                  TickInit
                  0x02338e                  TickGet
                  0x02339a                  TickGetDiv256
                  0x0233ca                  TickGetDiv64K
                  0x0233fa                  TickConvertToMilliseconds
                  0x023420                  _T1Interrupt
 .text            0x023438        0x12c list.o
                  0x023438                  vListInitialise
                  0x02346a                  vListInitialiseItem
                  0x023478                  vListInsertEnd
                  0x0234bc                  vListInsert
                  0x02351c                  uxListRemove
 .text            0x023564        0x112 HWInit.o
                  0x023564                  HWInit
 .text            0x023676        0x110 Delay.o
                  0x023676                  DelayMs
                  0x0236a2                  Delay10us
 .text            0x023786        0x10a WF_Config.o
                  0x023786                  WF_ProcessEvent
 .text            0x023890        0x108 ARPlib.o
                  0x023890                  ARPResolveMAC
                  0x02394c                  cARPResolveMAC
 .text            0x023998         0xdc BigInt_helper.o
                  0x023998                  _addBI
                  0x0239b8                  _subBI
                  0x0239d8                  _zeroBI
                  0x0239e4                  _msbBI
                  0x0239f4                  _mulBI
                  0x023a2a                  _sqrBI
                  0x023a34                  _masBI
                  0x023a56                  _copyBI
 .text            0x023a74         0xd4 WF_Spi.o
                  0x023a74                  WF_SpiInit
                  0x023a94                  WF_SpiEnableChipSelect
                  0x023a9c                  WF_SpiDisableChipSelect
                  0x023aa6                  WFSpiTxRx
 .text            0x023b48         0xc6 WF_Utils.o
                  0x023b48                  WF_Connect
 .text            0x023c0e         0xb4 WFScan.o
                  0x023c34                  WF_Scan
                  0x023c72                  WF_ScanGetResult
 .text            0x023cc2         0x9a WF_Eint.o
                  0x023cc2                  WF_EintIsDisabled
                  0x023cd4                  WF_EintIsPending
                  0x023cf6                  _INT1Interrupt
                  0x023d30                  WF_EintEnable
                  0x023d42                  WF_EintDisable
                  0x023d4a                  WF_EintInit
 .text            0x023d5c         0x98 x_i2c_devices-pro.o
                  0x023d5c                  set_register
                  0x023db8                  read_register
 .text            0x023df4         0x88 WFTxPower.o
                  0x023df4                  WF_TxPowerSetMax
                  0x023e36                  WF_TxPowerGetMax
                  0x023e62                  WF_TxPowerGetFactoryMax
 .text            0x023e7c         0x84 x_analog_in-pro.o
                  0x023e7c                  x_analog_in-pro.o:_An_i_ctor
                  0x023e92                  x_analog_in-pro.o:_An_i_dtor
                  0x023eb8                  x_analog_in-pro.o:_An_i_attach
                  0x023eda                  x_analog_in-pro.o:_An_i_getan_i
 .text            0x023f00         0x7e ICMP.o
                  0x023f00                  ICMPProcess
 .text            0x023f7e         0x6e WF_Events.o
                  0x023f7e                  OnConnectionSuccessful
                  0x023f8e                  OnConnectionFailed
                  0x023f98                  OnConnectionTempLost
                  0x023fa2                  OnConnectionReestablished
                  0x023fb2                  OnConnectionPermLost
                  0x023fbc                  OnScanResult
 .text            0x023fec         0x68 WFInit.o
                  0x023fec                  WF_Init
 .text            0x024054         0x54 portasm_PIC24.o
                  0x024054                  vPortYield

MPFSHelpers       0x0240a8          0xe
 MPFSHelpers      0x0240a8          0xe MPFSImg2.o
                  0x0240a8                  ReadProgramMemory
